	.text
	.def	 @feat.00;
	.scl	3;
	.type	0;
	.endef
	.globl	@feat.00
.set @feat.00, 0
	.file	"main.cpp"
	.def	 "?print@@YAXXZ";
	.scl	2;
	.type	32;
	.endef
	.globl	"?print@@YAXXZ"         # -- Begin function ?print@@YAXXZ
	.p2align	4, 0x90
"?print@@YAXXZ":                        # @"?print@@YAXXZ"
# %bb.0:
	retq
                                        # -- End function
	.def	 "?print1@@YAX_J@Z";
	.scl	2;
	.type	32;
	.endef
	.globl	"?print1@@YAX_J@Z"      # -- Begin function ?print1@@YAX_J@Z
	.p2align	4, 0x90
"?print1@@YAX_J@Z":                     # @"?print1@@YAX_J@Z"
.seh_proc "?print1@@YAX_J@Z"
# %bb.0:
	pushq	%rax
	.seh_stackalloc 8
	.seh_endprologue
	movq	%rcx, (%rsp)
	popq	%rax
	retq
	.seh_handlerdata
	.text
	.seh_endproc
                                        # -- End function
	.def	 "?print2@@YAXAEA_J@Z";
	.scl	2;
	.type	32;
	.endef
	.globl	"?print2@@YAXAEA_J@Z"   # -- Begin function ?print2@@YAXAEA_J@Z
	.p2align	4, 0x90
"?print2@@YAXAEA_J@Z":                  # @"?print2@@YAXAEA_J@Z"
.seh_proc "?print2@@YAXAEA_J@Z"
# %bb.0:
	pushq	%rax
	.seh_stackalloc 8
	.seh_endprologue
	movq	%rcx, (%rsp)
	popq	%rax
	retq
	.seh_handlerdata
	.text
	.seh_endproc
                                        # -- End function
	.def	 "?print3@@YAXPEA_J@Z";
	.scl	2;
	.type	32;
	.endef
	.globl	"?print3@@YAXPEA_J@Z"   # -- Begin function ?print3@@YAXPEA_J@Z
	.p2align	4, 0x90
"?print3@@YAXPEA_J@Z":                  # @"?print3@@YAXPEA_J@Z"
.seh_proc "?print3@@YAXPEA_J@Z"
# %bb.0:
	pushq	%rax
	.seh_stackalloc 8
	.seh_endprologue
	movq	%rcx, (%rsp)
	popq	%rax
	retq
	.seh_handlerdata
	.text
	.seh_endproc
                                        # -- End function
	.def	 "?print4@@YAXUi64_2@@@Z";
	.scl	2;
	.type	32;
	.endef
	.globl	"?print4@@YAXUi64_2@@@Z" # -- Begin function ?print4@@YAXUi64_2@@@Z
	.p2align	4, 0x90
"?print4@@YAXUi64_2@@@Z":               # @"?print4@@YAXUi64_2@@@Z"
# %bb.0:
	retq
                                        # -- End function
	.def	 "?print5@@YAXAEAUi64_2@@@Z";
	.scl	2;
	.type	32;
	.endef
	.globl	"?print5@@YAXAEAUi64_2@@@Z" # -- Begin function ?print5@@YAXAEAUi64_2@@@Z
	.p2align	4, 0x90
"?print5@@YAXAEAUi64_2@@@Z":            # @"?print5@@YAXAEAUi64_2@@@Z"
.seh_proc "?print5@@YAXAEAUi64_2@@@Z"
# %bb.0:
	pushq	%rax
	.seh_stackalloc 8
	.seh_endprologue
	movq	%rcx, (%rsp)
	popq	%rax
	retq
	.seh_handlerdata
	.text
	.seh_endproc
                                        # -- End function
	.def	 "?print6@@YAXPEAUi64_2@@@Z";
	.scl	2;
	.type	32;
	.endef
	.globl	"?print6@@YAXPEAUi64_2@@@Z" # -- Begin function ?print6@@YAXPEAUi64_2@@@Z
	.p2align	4, 0x90
"?print6@@YAXPEAUi64_2@@@Z":            # @"?print6@@YAXPEAUi64_2@@@Z"
.seh_proc "?print6@@YAXPEAUi64_2@@@Z"
# %bb.0:
	pushq	%rax
	.seh_stackalloc 8
	.seh_endprologue
	movq	%rcx, (%rsp)
	popq	%rax
	retq
	.seh_handlerdata
	.text
	.seh_endproc
                                        # -- End function
	.def	 "?print7@@YA_JXZ";
	.scl	2;
	.type	32;
	.endef
	.globl	"?print7@@YA_JXZ"       # -- Begin function ?print7@@YA_JXZ
	.p2align	4, 0x90
"?print7@@YA_JXZ":                      # @"?print7@@YA_JXZ"
# %bb.0:
	xorl	%eax, %eax
                                        # kill: def $rax killed $eax
	retq
                                        # -- End function
	.def	 "?print8@@YAPEA_JXZ";
	.scl	2;
	.type	32;
	.endef
	.globl	"?print8@@YAPEA_JXZ"    # -- Begin function ?print8@@YAPEA_JXZ
	.p2align	4, 0x90
"?print8@@YAPEA_JXZ":                   # @"?print8@@YAPEA_JXZ"
.seh_proc "?print8@@YAPEA_JXZ"
# %bb.0:
	pushq	%rax
	.seh_stackalloc 8
	.seh_endprologue
	movq	$0, (%rsp)
	movq	%rsp, %rax
	popq	%rcx
	retq
	.seh_handlerdata
	.text
	.seh_endproc
                                        # -- End function
	.def	 "?print9@@YAAEA_JXZ";
	.scl	2;
	.type	32;
	.endef
	.globl	"?print9@@YAAEA_JXZ"    # -- Begin function ?print9@@YAAEA_JXZ
	.p2align	4, 0x90
"?print9@@YAAEA_JXZ":                   # @"?print9@@YAAEA_JXZ"
.seh_proc "?print9@@YAAEA_JXZ"
# %bb.0:
	pushq	%rax
	.seh_stackalloc 8
	.seh_endprologue
	movq	$0, (%rsp)
	movq	%rsp, %rax
	popq	%rcx
	retq
	.seh_handlerdata
	.text
	.seh_endproc
                                        # -- End function
	.def	 "?print10@@YA?AUi64_2@@XZ";
	.scl	2;
	.type	32;
	.endef
	.globl	"?print10@@YA?AUi64_2@@XZ" # -- Begin function ?print10@@YA?AUi64_2@@XZ
	.p2align	4, 0x90
"?print10@@YA?AUi64_2@@XZ":             # @"?print10@@YA?AUi64_2@@XZ"
.seh_proc "?print10@@YA?AUi64_2@@XZ"
# %bb.0:
	subq	$56, %rsp
	.seh_stackalloc 56
	.seh_endprologue
	movq	%rcx, %rax
	xorl	%edx, %edx
	movq	%rcx, %r8
	movq	%r8, 48(%rsp)
	movl	$16, %r8d
	movq	%rax, 40(%rsp)          # 8-byte Spill
	callq	memset
	movq	40(%rsp), %rax          # 8-byte Reload
	addq	$56, %rsp
	retq
	.seh_handlerdata
	.text
	.seh_endproc
                                        # -- End function
	.def	 "?print11@@YAAEAUi64_2@@XZ";
	.scl	2;
	.type	32;
	.endef
	.globl	"?print11@@YAAEAUi64_2@@XZ" # -- Begin function ?print11@@YAAEAUi64_2@@XZ
	.p2align	4, 0x90
"?print11@@YAAEAUi64_2@@XZ":            # @"?print11@@YAAEAUi64_2@@XZ"
.seh_proc "?print11@@YAAEAUi64_2@@XZ"
# %bb.0:
	subq	$56, %rsp
	.seh_stackalloc 56
	.seh_endprologue
	xorl	%edx, %edx
	leaq	40(%rsp), %rax
	movq	%rax, %rcx
	movl	$16, %r8d
	movq	%rax, 32(%rsp)          # 8-byte Spill
	callq	memset
	movq	32(%rsp), %rax          # 8-byte Reload
	addq	$56, %rsp
	retq
	.seh_handlerdata
	.text
	.seh_endproc
                                        # -- End function
	.def	 "?print12@@YAPEAUi64_2@@XZ";
	.scl	2;
	.type	32;
	.endef
	.globl	"?print12@@YAPEAUi64_2@@XZ" # -- Begin function ?print12@@YAPEAUi64_2@@XZ
	.p2align	4, 0x90
"?print12@@YAPEAUi64_2@@XZ":            # @"?print12@@YAPEAUi64_2@@XZ"
.seh_proc "?print12@@YAPEAUi64_2@@XZ"
# %bb.0:
	subq	$56, %rsp
	.seh_stackalloc 56
	.seh_endprologue
	xorl	%edx, %edx
	leaq	40(%rsp), %rax
	movq	%rax, %rcx
	movl	$16, %r8d
	movq	%rax, 32(%rsp)          # 8-byte Spill
	callq	memset
	movq	32(%rsp), %rax          # 8-byte Reload
	addq	$56, %rsp
	retq
	.seh_handlerdata
	.text
	.seh_endproc
                                        # -- End function
	.def	 "?add1@@YA_J_J0@Z";
	.scl	2;
	.type	32;
	.endef
	.globl	"?add1@@YA_J_J0@Z"      # -- Begin function ?add1@@YA_J_J0@Z
	.p2align	4, 0x90
"?add1@@YA_J_J0@Z":                     # @"?add1@@YA_J_J0@Z"
.seh_proc "?add1@@YA_J_J0@Z"
# %bb.0:
	subq	$16, %rsp
	.seh_stackalloc 16
	.seh_endprologue
	movq	%rdx, 8(%rsp)
	movq	%rcx, (%rsp)
	movq	(%rsp), %rax
	addq	8(%rsp), %rax
	addq	$16, %rsp
	retq
	.seh_handlerdata
	.text
	.seh_endproc
                                        # -- End function
	.def	 "?add2@@YA_JAEA_J0@Z";
	.scl	2;
	.type	32;
	.endef
	.globl	"?add2@@YA_JAEA_J0@Z"   # -- Begin function ?add2@@YA_JAEA_J0@Z
	.p2align	4, 0x90
"?add2@@YA_JAEA_J0@Z":                  # @"?add2@@YA_JAEA_J0@Z"
.seh_proc "?add2@@YA_JAEA_J0@Z"
# %bb.0:
	subq	$24, %rsp
	.seh_stackalloc 24
	.seh_endprologue
	movq	%rdx, 16(%rsp)
	movq	%rcx, 8(%rsp)
	movq	8(%rsp), %rax
	movq	(%rax), %rax
	movq	16(%rsp), %rcx
	addq	(%rcx), %rax
	movq	%rax, (%rsp)
	movq	(%rsp), %rax
	addq	$24, %rsp
	retq
	.seh_handlerdata
	.text
	.seh_endproc
                                        # -- End function
	.def	 "?add3@@YA_JPEA_J0@Z";
	.scl	2;
	.type	32;
	.endef
	.globl	"?add3@@YA_JPEA_J0@Z"   # -- Begin function ?add3@@YA_JPEA_J0@Z
	.p2align	4, 0x90
"?add3@@YA_JPEA_J0@Z":                  # @"?add3@@YA_JPEA_J0@Z"
.seh_proc "?add3@@YA_JPEA_J0@Z"
# %bb.0:
	subq	$16, %rsp
	.seh_stackalloc 16
	.seh_endprologue
	movq	%rdx, 8(%rsp)
	movq	%rcx, (%rsp)
	movq	(%rsp), %rax
	movq	(%rax), %rax
	movq	8(%rsp), %rcx
	addq	(%rcx), %rax
	addq	$16, %rsp
	retq
	.seh_handlerdata
	.text
	.seh_endproc
                                        # -- End function
	.def	 "?padd1@@YA?AVPoint@@V1@0@Z";
	.scl	2;
	.type	32;
	.endef
	.globl	"?padd1@@YA?AVPoint@@V1@0@Z" # -- Begin function ?padd1@@YA?AVPoint@@V1@0@Z
	.p2align	4, 0x90
"?padd1@@YA?AVPoint@@V1@0@Z":           # @"?padd1@@YA?AVPoint@@V1@0@Z"
.seh_proc "?padd1@@YA?AVPoint@@V1@0@Z"
# %bb.0:
	subq	$72, %rsp
	.seh_stackalloc 72
	.seh_endprologue
	movq	%rcx, %rax
	xorl	%r9d, %r9d
	movq	%rcx, %r10
	movq	%r10, 64(%rsp)
	movq	%rcx, %r10
	movq	%rcx, 56(%rsp)          # 8-byte Spill
	movq	%r10, %rcx
	movq	%rdx, 48(%rsp)          # 8-byte Spill
	movl	%r9d, %edx
	movl	$32, %r10d
	movq	%r8, 40(%rsp)           # 8-byte Spill
	movq	%r10, %r8
	movq	%rax, 32(%rsp)          # 8-byte Spill
	callq	memset
	movq	48(%rsp), %rax          # 8-byte Reload
	movq	(%rax), %rcx
	movq	40(%rsp), %r8           # 8-byte Reload
	addq	(%r8), %rcx
	movq	56(%rsp), %r10          # 8-byte Reload
	movq	%rcx, (%r10)
	movq	8(%rax), %rcx
	addq	8(%r8), %rcx
	movq	%rcx, 8(%r10)
	movq	16(%rax), %rcx
	addq	16(%r8), %rcx
	movq	%rcx, 16(%r10)
	movq	24(%rax), %rcx
	addq	24(%r8), %rcx
	movq	%rcx, 24(%r10)
	movq	32(%rsp), %rax          # 8-byte Reload
	addq	$72, %rsp
	retq
	.seh_handlerdata
	.text
	.seh_endproc
                                        # -- End function
	.def	 "?padd2@@YA?AVPoint@@AEAV1@0@Z";
	.scl	2;
	.type	32;
	.endef
	.globl	"?padd2@@YA?AVPoint@@AEAV1@0@Z" # -- Begin function ?padd2@@YA?AVPoint@@AEAV1@0@Z
	.p2align	4, 0x90
"?padd2@@YA?AVPoint@@AEAV1@0@Z":        # @"?padd2@@YA?AVPoint@@AEAV1@0@Z"
.seh_proc "?padd2@@YA?AVPoint@@AEAV1@0@Z"
# %bb.0:
	subq	$72, %rsp
	.seh_stackalloc 72
	.seh_endprologue
	movq	%rcx, %rax
	xorl	%r9d, %r9d
	movq	%rcx, %r10
	movq	%r10, 64(%rsp)
	movq	%r8, 56(%rsp)
	movq	%rdx, 48(%rsp)
	movq	%rcx, %rdx
	movq	%rcx, 40(%rsp)          # 8-byte Spill
	movq	%rdx, %rcx
	movl	%r9d, %edx
	movl	$32, %r8d
	movq	%rax, 32(%rsp)          # 8-byte Spill
	callq	memset
	movq	48(%rsp), %rax
	movq	(%rax), %rax
	movq	56(%rsp), %rcx
	addq	(%rcx), %rax
	movq	40(%rsp), %rcx          # 8-byte Reload
	movq	%rax, (%rcx)
	movq	48(%rsp), %rax
	movq	8(%rax), %rax
	movq	56(%rsp), %r8
	addq	8(%r8), %rax
	movq	%rax, 8(%rcx)
	movq	48(%rsp), %rax
	movq	16(%rax), %rax
	movq	56(%rsp), %r8
	addq	16(%r8), %rax
	movq	%rax, 16(%rcx)
	movq	48(%rsp), %rax
	movq	24(%rax), %rax
	movq	56(%rsp), %r8
	addq	24(%r8), %rax
	movq	%rax, 24(%rcx)
	movq	32(%rsp), %rax          # 8-byte Reload
	addq	$72, %rsp
	retq
	.seh_handlerdata
	.text
	.seh_endproc
                                        # -- End function
	.def	 "?padd3@@YA?AVPoint@@PEAV1@0@Z";
	.scl	2;
	.type	32;
	.endef
	.globl	"?padd3@@YA?AVPoint@@PEAV1@0@Z" # -- Begin function ?padd3@@YA?AVPoint@@PEAV1@0@Z
	.p2align	4, 0x90
"?padd3@@YA?AVPoint@@PEAV1@0@Z":        # @"?padd3@@YA?AVPoint@@PEAV1@0@Z"
.seh_proc "?padd3@@YA?AVPoint@@PEAV1@0@Z"
# %bb.0:
	subq	$72, %rsp
	.seh_stackalloc 72
	.seh_endprologue
	movq	%rcx, %rax
	xorl	%r9d, %r9d
	movq	%rcx, %r10
	movq	%r10, 64(%rsp)
	movq	%r8, 56(%rsp)
	movq	%rdx, 48(%rsp)
	movq	%rcx, %rdx
	movq	%rcx, 40(%rsp)          # 8-byte Spill
	movq	%rdx, %rcx
	movl	%r9d, %edx
	movl	$32, %r8d
	movq	%rax, 32(%rsp)          # 8-byte Spill
	callq	memset
	movq	48(%rsp), %rax
	movq	(%rax), %rax
	movq	56(%rsp), %rcx
	addq	(%rcx), %rax
	movq	40(%rsp), %rcx          # 8-byte Reload
	movq	%rax, (%rcx)
	movq	48(%rsp), %rax
	movq	8(%rax), %rax
	movq	56(%rsp), %r8
	addq	8(%r8), %rax
	movq	%rax, 8(%rcx)
	movq	48(%rsp), %rax
	movq	16(%rax), %rax
	movq	56(%rsp), %r8
	addq	16(%r8), %rax
	movq	%rax, 16(%rcx)
	movq	48(%rsp), %rax
	movq	24(%rax), %rax
	movq	56(%rsp), %r8
	addq	24(%r8), %rax
	movq	%rax, 24(%rcx)
	movq	32(%rsp), %rax          # 8-byte Reload
	addq	$72, %rsp
	retq
	.seh_handlerdata
	.text
	.seh_endproc
                                        # -- End function
	.def	 main;
	.scl	2;
	.type	32;
	.endef
	.globl	main                    # -- Begin function main
	.p2align	4, 0x90
main:                                   # @main
.seh_proc main
# %bb.0:
	subq	$584, %rsp              # imm = 0x248
	.seh_stackalloc 584
	.seh_endprologue
	movq	$4, 576(%rsp)
	movq	$7, 568(%rsp)
	movl	$5, %ecx
	movl	$6, %edx
	callq	"?add1@@YA_J_J0@Z"
	movq	568(%rsp), %rdx
	movq	576(%rsp), %rcx
	movq	%rax, 128(%rsp)         # 8-byte Spill
	callq	"?add1@@YA_J_J0@Z"
	movq	%rax, 560(%rsp)
	leaq	576(%rsp), %rcx
	leaq	568(%rsp), %rdx
	callq	"?add2@@YA_JAEA_J0@Z"
	movq	%rax, 552(%rsp)
	leaq	576(%rsp), %rcx
	leaq	568(%rsp), %rdx
	callq	"?add3@@YA_JPEA_J0@Z"
	movq	%rax, 544(%rsp)
	leaq	536(%rsp), %rcx
	callq	"??0Single@@QEAA@XZ"
	xorl	%edx, %edx
	leaq	504(%rsp), %rcx
	movl	$32, %r8d
	movq	%rax, 120(%rsp)         # 8-byte Spill
	callq	memset
	movq	.L__const.main.pa(%rip), %rax
	movq	%rax, 472(%rsp)
	movq	.L__const.main.pa+8(%rip), %rax
	movq	%rax, 480(%rsp)
	movq	.L__const.main.pa+16(%rip), %rax
	movq	%rax, 488(%rsp)
	movq	.L__const.main.pa+24(%rip), %rax
	movq	%rax, 496(%rsp)
	movq	.L__const.main.pb(%rip), %rax
	movq	%rax, 440(%rsp)
	movq	.L__const.main.pb+8(%rip), %rax
	movq	%rax, 448(%rsp)
	movq	.L__const.main.pb+16(%rip), %rax
	movq	%rax, 456(%rsp)
	movq	.L__const.main.pb+24(%rip), %rax
	movq	%rax, 464(%rsp)
	movq	440(%rsp), %rax
	movq	%rax, 376(%rsp)
	movq	448(%rsp), %rax
	movq	%rax, 384(%rsp)
	movq	456(%rsp), %rax
	movq	%rax, 392(%rsp)
	movq	464(%rsp), %rax
	movq	%rax, 400(%rsp)
	movq	472(%rsp), %rax
	movq	%rax, 344(%rsp)
	movq	480(%rsp), %rax
	movq	%rax, 352(%rsp)
	movq	488(%rsp), %rax
	movq	%rax, 360(%rsp)
	movq	496(%rsp), %rax
	movq	%rax, 368(%rsp)
	leaq	408(%rsp), %rcx
	leaq	344(%rsp), %rdx
	leaq	376(%rsp), %r8
	callq	"?padd1@@YA?AVPoint@@V1@0@Z"
	leaq	312(%rsp), %rcx
	leaq	472(%rsp), %rdx
	leaq	440(%rsp), %r8
	callq	"?padd2@@YA?AVPoint@@AEAV1@0@Z"
	leaq	280(%rsp), %rcx
	leaq	472(%rsp), %rdx
	leaq	440(%rsp), %r8
	callq	"?padd3@@YA?AVPoint@@PEAV1@0@Z"
	leaq	272(%rsp), %rcx
	callq	"??0Empty@@QEAA@XZ"
	xorl	%edx, %edx
	leaq	256(%rsp), %rcx
	movl	$16, %r8d
	movq	%rax, 112(%rsp)         # 8-byte Spill
	callq	memset
	callq	"?print@@YAXXZ"
	xorl	%edx, %edx
	movl	%edx, %ecx
	callq	"?print1@@YAX_J@Z"
	leaq	576(%rsp), %rcx
	callq	"?print2@@YAXAEA_J@Z"
	leaq	576(%rsp), %rcx
	callq	"?print3@@YAXPEA_J@Z"
	xorl	%edx, %edx
	leaq	240(%rsp), %rax
	movq	%rax, %rcx
	movl	$16, %r8d
	movq	%rax, 104(%rsp)         # 8-byte Spill
	callq	memset
	movq	104(%rsp), %rcx         # 8-byte Reload
	callq	"?print4@@YAXUi64_2@@@Z"
	movq	256(%rsp), %rax
	movq	%rax, 224(%rsp)
	movq	264(%rsp), %rax
	movq	%rax, 232(%rsp)
	leaq	224(%rsp), %rcx
	callq	"?print4@@YAXUi64_2@@@Z"
	leaq	256(%rsp), %rcx
	callq	"?print5@@YAXAEAUi64_2@@@Z"
	leaq	256(%rsp), %rcx
	callq	"?print6@@YAXPEAUi64_2@@@Z"
	callq	"?print7@@YA_JXZ"
	movq	%rax, 96(%rsp)          # 8-byte Spill
	callq	"?print8@@YAPEA_JXZ"
	movq	%rax, 88(%rsp)          # 8-byte Spill
	callq	"?print9@@YAAEA_JXZ"
	leaq	208(%rsp), %rcx
	movq	%rax, 80(%rsp)          # 8-byte Spill
	callq	"?print10@@YA?AUi64_2@@XZ"
	callq	"?print12@@YAPEAUi64_2@@XZ"
	leaq	536(%rsp), %rcx
	movq	%rax, 72(%rsp)          # 8-byte Spill
	callq	"?Act@Single@@QEAAXXZ"
	callq	"?StaticAct@Single@@SAXXZ"
	xorl	%edx, %edx
	leaq	192(%rsp), %rax
	movq	%rax, %rcx
	movl	%edx, 68(%rsp)          # 4-byte Spill
	movl	$16, %eax
	movq	%rax, %r8
	movq	%rax, 56(%rsp)          # 8-byte Spill
	callq	memset
	leaq	176(%rsp), %rax
	movq	%rax, %rcx
	movl	68(%rsp), %edx          # 4-byte Reload
	movq	56(%rsp), %r8           # 8-byte Reload
	movq	%rax, 48(%rsp)          # 8-byte Spill
	callq	memset
	movq	$10, 176(%rsp)
	movq	48(%rsp), %rax          # 8-byte Reload
	movq	%rax, 168(%rsp)
	movq	168(%rsp), %rcx
	movq	$10, (%rcx)
	leaq	136(%rsp), %rcx
	leaq	"??_C@_00CNPNBAHC@?$AA@"(%rip), %rdx
	callq	"??0?$basic_string@DU?$char_traits@D@std@@V?$allocator@D@2@@std@@QEAA@QEBD@Z"
	leaq	136(%rsp), %rcx
	movq	%rax, 40(%rsp)          # 8-byte Spill
	callq	"??1?$basic_string@DU?$char_traits@D@std@@V?$allocator@D@2@@std@@QEAA@XZ"
	xorl	%eax, %eax
	addq	$584, %rsp              # imm = 0x248
	retq
	.seh_handlerdata
	.text
	.seh_endproc
                                        # -- End function
	.def	 "??0Single@@QEAA@XZ";
	.scl	2;
	.type	32;
	.endef
	.section	.text,"xr",discard,"??0Single@@QEAA@XZ"
	.globl	"??0Single@@QEAA@XZ"    # -- Begin function ??0Single@@QEAA@XZ
	.p2align	4, 0x90
"??0Single@@QEAA@XZ":                   # @"??0Single@@QEAA@XZ"
.seh_proc "??0Single@@QEAA@XZ"
# %bb.0:
	pushq	%rax
	.seh_stackalloc 8
	.seh_endprologue
	movq	%rcx, (%rsp)
	movq	(%rsp), %rax
	popq	%rcx
	retq
	.seh_handlerdata
	.section	.text,"xr",discard,"??0Single@@QEAA@XZ"
	.seh_endproc
                                        # -- End function
	.def	 "??0Empty@@QEAA@XZ";
	.scl	2;
	.type	32;
	.endef
	.section	.text,"xr",discard,"??0Empty@@QEAA@XZ"
	.globl	"??0Empty@@QEAA@XZ"     # -- Begin function ??0Empty@@QEAA@XZ
	.p2align	4, 0x90
"??0Empty@@QEAA@XZ":                    # @"??0Empty@@QEAA@XZ"
.seh_proc "??0Empty@@QEAA@XZ"
# %bb.0:
	pushq	%rax
	.seh_stackalloc 8
	.seh_endprologue
	movq	%rcx, (%rsp)
	movq	(%rsp), %rax
	popq	%rcx
	retq
	.seh_handlerdata
	.section	.text,"xr",discard,"??0Empty@@QEAA@XZ"
	.seh_endproc
                                        # -- End function
	.def	 "?Act@Single@@QEAAXXZ";
	.scl	2;
	.type	32;
	.endef
	.section	.text,"xr",discard,"?Act@Single@@QEAAXXZ"
	.globl	"?Act@Single@@QEAAXXZ"  # -- Begin function ?Act@Single@@QEAAXXZ
	.p2align	4, 0x90
"?Act@Single@@QEAAXXZ":                 # @"?Act@Single@@QEAAXXZ"
.seh_proc "?Act@Single@@QEAAXXZ"
# %bb.0:
	subq	$40, %rsp
	.seh_stackalloc 40
	.seh_endprologue
	movq	%rcx, 32(%rsp)
	movq	32(%rsp), %rcx
	callq	"?Act@Single@@QEAAXXZ"
	nop
	addq	$40, %rsp
	retq
	.seh_handlerdata
	.section	.text,"xr",discard,"?Act@Single@@QEAAXXZ"
	.seh_endproc
                                        # -- End function
	.def	 "?StaticAct@Single@@SAXXZ";
	.scl	2;
	.type	32;
	.endef
	.section	.text,"xr",discard,"?StaticAct@Single@@SAXXZ"
	.globl	"?StaticAct@Single@@SAXXZ" # -- Begin function ?StaticAct@Single@@SAXXZ
	.p2align	4, 0x90
"?StaticAct@Single@@SAXXZ":             # @"?StaticAct@Single@@SAXXZ"
# %bb.0:
	retq
                                        # -- End function
	.def	 "??0?$basic_string@DU?$char_traits@D@std@@V?$allocator@D@2@@std@@QEAA@QEBD@Z";
	.scl	2;
	.type	32;
	.endef
	.section	.text,"xr",discard,"??0?$basic_string@DU?$char_traits@D@std@@V?$allocator@D@2@@std@@QEAA@QEBD@Z"
	.globl	"??0?$basic_string@DU?$char_traits@D@std@@V?$allocator@D@2@@std@@QEAA@QEBD@Z" # -- Begin function ??0?$basic_string@DU?$char_traits@D@std@@V?$allocator@D@2@@std@@QEAA@QEBD@Z
	.p2align	4, 0x90
"??0?$basic_string@DU?$char_traits@D@std@@V?$allocator@D@2@@std@@QEAA@QEBD@Z": # @"??0?$basic_string@DU?$char_traits@D@std@@V?$allocator@D@2@@std@@QEAA@QEBD@Z"
.Lfunc_begin0:
.seh_proc "??0?$basic_string@DU?$char_traits@D@std@@V?$allocator@D@2@@std@@QEAA@QEBD@Z"
	.seh_handler __CxxFrameHandler3, @unwind, @except
# %bb.0:
	pushq	%rbp
	.seh_pushreg %rbp
	subq	$128, %rsp
	.seh_stackalloc 128
	leaq	128(%rsp), %rbp
	.seh_setframe %rbp, 128
	.seh_endprologue
	movq	$-2, -8(%rbp)
	movq	%rdx, -16(%rbp)
	movq	%rcx, -24(%rbp)
	movq	-24(%rbp), %rax
	movq	%rax, %rcx
	movb	-32(%rbp), %dl
	movq	%rcx, -64(%rbp)         # 8-byte Spill
	movq	%rax, %rcx
	movq	%rax, -72(%rbp)         # 8-byte Spill
	callq	"??$?0$$V@?$_Compressed_pair@V?$allocator@D@std@@V?$_String_val@U?$_Simple_types@D@std@@@2@$00@std@@QEAA@U_Zero_then_variadic_args_t@1@@Z"
	leaq	-48(%rbp), %rcx
	movq	%rcx, -40(%rbp)
	movq	-40(%rbp), %rdx
	leaq	-56(%rbp), %rcx
	movq	-72(%rbp), %r8          # 8-byte Reload
	movq	%rax, -80(%rbp)         # 8-byte Spill
	callq	"??0_Fake_proxy_ptr_impl@std@@QEAA@AEBU_Fake_allocator@1@AEBU_Container_base0@1@@Z"
	movq	-72(%rbp), %rcx         # 8-byte Reload
	movq	%rax, -88(%rbp)         # 8-byte Spill
	callq	"?_Tidy_init@?$basic_string@DU?$char_traits@D@std@@V?$allocator@D@2@@std@@AEAAXXZ"
	movq	-16(%rbp), %rdx
.Ltmp0:
	movq	-72(%rbp), %rcx         # 8-byte Reload
	callq	"?assign@?$basic_string@DU?$char_traits@D@std@@V?$allocator@D@2@@std@@QEAAAEAV12@QEBD@Z"
.Ltmp1:
	jmp	.LBB24_1
.LBB24_1:
	leaq	-56(%rbp), %rcx
	callq	"?_Release@_Fake_proxy_ptr_impl@std@@QEAAXXZ"
	movq	-64(%rbp), %rax         # 8-byte Reload
	addq	$128, %rsp
	popq	%rbp
	retq
	.seh_handlerdata
	.long	("$cppxdata$??0?$basic_string@DU?$char_traits@D@std@@V?$allocator@D@2@@std@@QEAA@QEBD@Z")@IMGREL
	.section	.text,"xr",discard,"??0?$basic_string@DU?$char_traits@D@std@@V?$allocator@D@2@@std@@QEAA@QEBD@Z"
	.seh_endproc
	.def	 "?dtor$2@?0???0?$basic_string@DU?$char_traits@D@std@@V?$allocator@D@2@@std@@QEAA@QEBD@Z@4HA";
	.scl	3;
	.type	32;
	.endef
	.p2align	4, 0x90
"?dtor$2@?0???0?$basic_string@DU?$char_traits@D@std@@V?$allocator@D@2@@std@@QEAA@QEBD@Z@4HA":
.seh_proc "?dtor$2@?0???0?$basic_string@DU?$char_traits@D@std@@V?$allocator@D@2@@std@@QEAA@QEBD@Z@4HA"
.LBB24_2:
	movq	%rdx, 16(%rsp)
	pushq	%rbp
	.seh_pushreg %rbp
	subq	$32, %rsp
	.seh_stackalloc 32
	leaq	128(%rdx), %rbp
	.seh_endprologue
	movq	-72(%rbp), %rcx         # 8-byte Reload
	callq	"??1?$_Compressed_pair@V?$allocator@D@std@@V?$_String_val@U?$_Simple_types@D@std@@@2@$00@std@@QEAA@XZ"
	nop
	addq	$32, %rsp
	popq	%rbp
	retq                            # CLEANUPRET
.Lfunc_end0:
	.seh_handlerdata
	.section	.text,"xr",discard,"??0?$basic_string@DU?$char_traits@D@std@@V?$allocator@D@2@@std@@QEAA@QEBD@Z"
	.seh_endproc
	.section	.xdata,"dr",associative,"??0?$basic_string@DU?$char_traits@D@std@@V?$allocator@D@2@@std@@QEAA@QEBD@Z"
	.p2align	2
"$cppxdata$??0?$basic_string@DU?$char_traits@D@std@@V?$allocator@D@2@@std@@QEAA@QEBD@Z":
	.long	429065506               # MagicNumber
	.long	1                       # MaxState
	.long	("$stateUnwindMap$??0?$basic_string@DU?$char_traits@D@std@@V?$allocator@D@2@@std@@QEAA@QEBD@Z")@IMGREL # UnwindMap
	.long	0                       # NumTryBlocks
	.long	0                       # TryBlockMap
	.long	3                       # IPMapEntries
	.long	("$ip2state$??0?$basic_string@DU?$char_traits@D@std@@V?$allocator@D@2@@std@@QEAA@QEBD@Z")@IMGREL # IPToStateXData
	.long	120                     # UnwindHelp
	.long	0                       # ESTypeList
	.long	1                       # EHFlags
"$stateUnwindMap$??0?$basic_string@DU?$char_traits@D@std@@V?$allocator@D@2@@std@@QEAA@QEBD@Z":
	.long	-1                      # ToState
	.long	"?dtor$2@?0???0?$basic_string@DU?$char_traits@D@std@@V?$allocator@D@2@@std@@QEAA@QEBD@Z@4HA"@IMGREL # Action
"$ip2state$??0?$basic_string@DU?$char_traits@D@std@@V?$allocator@D@2@@std@@QEAA@QEBD@Z":
	.long	.Lfunc_begin0@IMGREL    # IP
	.long	-1                      # ToState
	.long	.Ltmp0@IMGREL+1         # IP
	.long	0                       # ToState
	.long	.Ltmp1@IMGREL+1         # IP
	.long	-1                      # ToState
	.section	.text,"xr",discard,"??0?$basic_string@DU?$char_traits@D@std@@V?$allocator@D@2@@std@@QEAA@QEBD@Z"
                                        # -- End function
	.def	 "??1?$basic_string@DU?$char_traits@D@std@@V?$allocator@D@2@@std@@QEAA@XZ";
	.scl	2;
	.type	32;
	.endef
	.section	.text,"xr",discard,"??1?$basic_string@DU?$char_traits@D@std@@V?$allocator@D@2@@std@@QEAA@XZ"
	.globl	"??1?$basic_string@DU?$char_traits@D@std@@V?$allocator@D@2@@std@@QEAA@XZ" # -- Begin function ??1?$basic_string@DU?$char_traits@D@std@@V?$allocator@D@2@@std@@QEAA@XZ
	.p2align	4, 0x90
"??1?$basic_string@DU?$char_traits@D@std@@V?$allocator@D@2@@std@@QEAA@XZ": # @"??1?$basic_string@DU?$char_traits@D@std@@V?$allocator@D@2@@std@@QEAA@XZ"
.seh_proc "??1?$basic_string@DU?$char_traits@D@std@@V?$allocator@D@2@@std@@QEAA@XZ"
# %bb.0:
	subq	$56, %rsp
	.seh_stackalloc 56
	.seh_endprologue
	movq	%rcx, 48(%rsp)
	movq	48(%rsp), %rax
	movq	%rax, %rcx
	movq	%rax, 40(%rsp)          # 8-byte Spill
	callq	"?_Tidy_deallocate@?$basic_string@DU?$char_traits@D@std@@V?$allocator@D@2@@std@@AEAAXXZ"
	movq	40(%rsp), %rcx          # 8-byte Reload
	callq	"??1?$_Compressed_pair@V?$allocator@D@std@@V?$_String_val@U?$_Simple_types@D@std@@@2@$00@std@@QEAA@XZ"
	nop
	addq	$56, %rsp
	retq
	.seh_handlerdata
	.section	.text,"xr",discard,"??1?$basic_string@DU?$char_traits@D@std@@V?$allocator@D@2@@std@@QEAA@XZ"
	.seh_endproc
                                        # -- End function
	.def	 "?_Tidy_deallocate@?$basic_string@DU?$char_traits@D@std@@V?$allocator@D@2@@std@@AEAAXXZ";
	.scl	2;
	.type	32;
	.endef
	.section	.text,"xr",discard,"?_Tidy_deallocate@?$basic_string@DU?$char_traits@D@std@@V?$allocator@D@2@@std@@AEAAXXZ"
	.globl	"?_Tidy_deallocate@?$basic_string@DU?$char_traits@D@std@@V?$allocator@D@2@@std@@AEAAXXZ" # -- Begin function ?_Tidy_deallocate@?$basic_string@DU?$char_traits@D@std@@V?$allocator@D@2@@std@@AEAAXXZ
	.p2align	4, 0x90
"?_Tidy_deallocate@?$basic_string@DU?$char_traits@D@std@@V?$allocator@D@2@@std@@AEAAXXZ": # @"?_Tidy_deallocate@?$basic_string@DU?$char_traits@D@std@@V?$allocator@D@2@@std@@AEAAXXZ"
.seh_proc "?_Tidy_deallocate@?$basic_string@DU?$char_traits@D@std@@V?$allocator@D@2@@std@@AEAAXXZ"
# %bb.0:
	subq	$88, %rsp
	.seh_stackalloc 88
	.seh_endprologue
	movq	%rcx, 80(%rsp)
	movq	80(%rsp), %rax
	movq	%rax, %rcx
	movq	%rax, 48(%rsp)          # 8-byte Spill
	callq	"?_Orphan_all@_Container_base0@std@@QEAAXXZ"
	movq	48(%rsp), %rcx          # 8-byte Reload
	callq	"?_Large_string_engaged@?$_String_val@U?$_Simple_types@D@std@@@std@@QEBA_NXZ"
	testb	$1, %al
	jne	.LBB26_1
	jmp	.LBB26_2
.LBB26_1:
	movq	48(%rsp), %rax          # 8-byte Reload
	movq	(%rax), %rcx
	movq	%rcx, 72(%rsp)
	movq	%rax, %rcx
	callq	"?_Getal@?$basic_string@DU?$char_traits@D@std@@V?$allocator@D@2@@std@@AEAAAEAV?$allocator@D@2@XZ"
	movq	%rax, 64(%rsp)
	movq	48(%rsp), %rax          # 8-byte Reload
	movq	%rax, %rcx
	callq	"??$_Destroy_in_place@PEAD@std@@YAXAEAPEAD@Z"
	movq	64(%rsp), %rcx
	movq	48(%rsp), %rax          # 8-byte Reload
	movq	24(%rax), %rdx
	addq	$1, %rdx
	movq	72(%rsp), %r8
	movq	%rdx, 40(%rsp)          # 8-byte Spill
	movq	%r8, %rdx
	movq	40(%rsp), %r8           # 8-byte Reload
	callq	"?deallocate@?$allocator@D@std@@QEAAXQEAD_K@Z"
.LBB26_2:
	movq	48(%rsp), %rax          # 8-byte Reload
	movq	$0, 16(%rax)
	movq	$15, 24(%rax)
	movb	$0, 63(%rsp)
	movq	%rax, %rcx
	leaq	63(%rsp), %rdx
	callq	"?assign@?$_Narrow_char_traits@DH@std@@SAXAEADAEBD@Z"
	nop
	addq	$88, %rsp
	retq
	.seh_handlerdata
	.section	.text,"xr",discard,"?_Tidy_deallocate@?$basic_string@DU?$char_traits@D@std@@V?$allocator@D@2@@std@@AEAAXXZ"
	.seh_endproc
                                        # -- End function
	.def	 "??1?$_Compressed_pair@V?$allocator@D@std@@V?$_String_val@U?$_Simple_types@D@std@@@2@$00@std@@QEAA@XZ";
	.scl	2;
	.type	32;
	.endef
	.section	.text,"xr",discard,"??1?$_Compressed_pair@V?$allocator@D@std@@V?$_String_val@U?$_Simple_types@D@std@@@2@$00@std@@QEAA@XZ"
	.globl	"??1?$_Compressed_pair@V?$allocator@D@std@@V?$_String_val@U?$_Simple_types@D@std@@@2@$00@std@@QEAA@XZ" # -- Begin function ??1?$_Compressed_pair@V?$allocator@D@std@@V?$_String_val@U?$_Simple_types@D@std@@@2@$00@std@@QEAA@XZ
	.p2align	4, 0x90
"??1?$_Compressed_pair@V?$allocator@D@std@@V?$_String_val@U?$_Simple_types@D@std@@@2@$00@std@@QEAA@XZ": # @"??1?$_Compressed_pair@V?$allocator@D@std@@V?$_String_val@U?$_Simple_types@D@std@@@2@$00@std@@QEAA@XZ"
.seh_proc "??1?$_Compressed_pair@V?$allocator@D@std@@V?$_String_val@U?$_Simple_types@D@std@@@2@$00@std@@QEAA@XZ"
# %bb.0:
	subq	$40, %rsp
	.seh_stackalloc 40
	.seh_endprologue
	movq	%rcx, 32(%rsp)
	movq	32(%rsp), %rcx
	callq	"??1?$_String_val@U?$_Simple_types@D@std@@@std@@QEAA@XZ"
	nop
	addq	$40, %rsp
	retq
	.seh_handlerdata
	.section	.text,"xr",discard,"??1?$_Compressed_pair@V?$allocator@D@std@@V?$_String_val@U?$_Simple_types@D@std@@@2@$00@std@@QEAA@XZ"
	.seh_endproc
                                        # -- End function
	.def	 "?_Orphan_all@_Container_base0@std@@QEAAXXZ";
	.scl	2;
	.type	32;
	.endef
	.section	.text,"xr",discard,"?_Orphan_all@_Container_base0@std@@QEAAXXZ"
	.globl	"?_Orphan_all@_Container_base0@std@@QEAAXXZ" # -- Begin function ?_Orphan_all@_Container_base0@std@@QEAAXXZ
	.p2align	4, 0x90
"?_Orphan_all@_Container_base0@std@@QEAAXXZ": # @"?_Orphan_all@_Container_base0@std@@QEAAXXZ"
.seh_proc "?_Orphan_all@_Container_base0@std@@QEAAXXZ"
# %bb.0:
	pushq	%rax
	.seh_stackalloc 8
	.seh_endprologue
	movq	%rcx, (%rsp)
	popq	%rax
	retq
	.seh_handlerdata
	.section	.text,"xr",discard,"?_Orphan_all@_Container_base0@std@@QEAAXXZ"
	.seh_endproc
                                        # -- End function
	.def	 "?_Large_string_engaged@?$_String_val@U?$_Simple_types@D@std@@@std@@QEBA_NXZ";
	.scl	2;
	.type	32;
	.endef
	.section	.text,"xr",discard,"?_Large_string_engaged@?$_String_val@U?$_Simple_types@D@std@@@std@@QEBA_NXZ"
	.globl	"?_Large_string_engaged@?$_String_val@U?$_Simple_types@D@std@@@std@@QEBA_NXZ" # -- Begin function ?_Large_string_engaged@?$_String_val@U?$_Simple_types@D@std@@@std@@QEBA_NXZ
	.p2align	4, 0x90
"?_Large_string_engaged@?$_String_val@U?$_Simple_types@D@std@@@std@@QEBA_NXZ": # @"?_Large_string_engaged@?$_String_val@U?$_Simple_types@D@std@@@std@@QEBA_NXZ"
.seh_proc "?_Large_string_engaged@?$_String_val@U?$_Simple_types@D@std@@@std@@QEBA_NXZ"
# %bb.0:
	pushq	%rax
	.seh_stackalloc 8
	.seh_endprologue
	movq	%rcx, (%rsp)
	movq	(%rsp), %rax
	movl	$16, %ecx
	cmpq	24(%rax), %rcx
	setbe	%dl
	andb	$1, %dl
	movzbl	%dl, %eax
	popq	%rcx
	retq
	.seh_handlerdata
	.section	.text,"xr",discard,"?_Large_string_engaged@?$_String_val@U?$_Simple_types@D@std@@@std@@QEBA_NXZ"
	.seh_endproc
                                        # -- End function
	.def	 "?_Getal@?$basic_string@DU?$char_traits@D@std@@V?$allocator@D@2@@std@@AEAAAEAV?$allocator@D@2@XZ";
	.scl	2;
	.type	32;
	.endef
	.section	.text,"xr",discard,"?_Getal@?$basic_string@DU?$char_traits@D@std@@V?$allocator@D@2@@std@@AEAAAEAV?$allocator@D@2@XZ"
	.globl	"?_Getal@?$basic_string@DU?$char_traits@D@std@@V?$allocator@D@2@@std@@AEAAAEAV?$allocator@D@2@XZ" # -- Begin function ?_Getal@?$basic_string@DU?$char_traits@D@std@@V?$allocator@D@2@@std@@AEAAAEAV?$allocator@D@2@XZ
	.p2align	4, 0x90
"?_Getal@?$basic_string@DU?$char_traits@D@std@@V?$allocator@D@2@@std@@AEAAAEAV?$allocator@D@2@XZ": # @"?_Getal@?$basic_string@DU?$char_traits@D@std@@V?$allocator@D@2@@std@@AEAAAEAV?$allocator@D@2@XZ"
.seh_proc "?_Getal@?$basic_string@DU?$char_traits@D@std@@V?$allocator@D@2@@std@@AEAAAEAV?$allocator@D@2@XZ"
# %bb.0:
	subq	$40, %rsp
	.seh_stackalloc 40
	.seh_endprologue
	movq	%rcx, 32(%rsp)
	movq	32(%rsp), %rcx
	callq	"?_Get_first@?$_Compressed_pair@V?$allocator@D@std@@V?$_String_val@U?$_Simple_types@D@std@@@2@$00@std@@QEAAAEAV?$allocator@D@2@XZ"
	nop
	addq	$40, %rsp
	retq
	.seh_handlerdata
	.section	.text,"xr",discard,"?_Getal@?$basic_string@DU?$char_traits@D@std@@V?$allocator@D@2@@std@@AEAAAEAV?$allocator@D@2@XZ"
	.seh_endproc
                                        # -- End function
	.def	 "??$_Destroy_in_place@PEAD@std@@YAXAEAPEAD@Z";
	.scl	2;
	.type	32;
	.endef
	.section	.text,"xr",discard,"??$_Destroy_in_place@PEAD@std@@YAXAEAPEAD@Z"
	.globl	"??$_Destroy_in_place@PEAD@std@@YAXAEAPEAD@Z" # -- Begin function ??$_Destroy_in_place@PEAD@std@@YAXAEAPEAD@Z
	.p2align	4, 0x90
"??$_Destroy_in_place@PEAD@std@@YAXAEAPEAD@Z": # @"??$_Destroy_in_place@PEAD@std@@YAXAEAPEAD@Z"
.seh_proc "??$_Destroy_in_place@PEAD@std@@YAXAEAPEAD@Z"
# %bb.0:
	pushq	%rax
	.seh_stackalloc 8
	.seh_endprologue
	movq	%rcx, (%rsp)
	popq	%rax
	retq
	.seh_handlerdata
	.section	.text,"xr",discard,"??$_Destroy_in_place@PEAD@std@@YAXAEAPEAD@Z"
	.seh_endproc
                                        # -- End function
	.def	 "?deallocate@?$allocator@D@std@@QEAAXQEAD_K@Z";
	.scl	2;
	.type	32;
	.endef
	.section	.text,"xr",discard,"?deallocate@?$allocator@D@std@@QEAAXQEAD_K@Z"
	.globl	"?deallocate@?$allocator@D@std@@QEAAXQEAD_K@Z" # -- Begin function ?deallocate@?$allocator@D@std@@QEAAXQEAD_K@Z
	.p2align	4, 0x90
"?deallocate@?$allocator@D@std@@QEAAXQEAD_K@Z": # @"?deallocate@?$allocator@D@std@@QEAAXQEAD_K@Z"
.seh_proc "?deallocate@?$allocator@D@std@@QEAAXQEAD_K@Z"
# %bb.0:
	subq	$56, %rsp
	.seh_stackalloc 56
	.seh_endprologue
	movq	%r8, 48(%rsp)
	movq	%rdx, 40(%rsp)
	movq	%rcx, 32(%rsp)
	movq	48(%rsp), %rax
	shlq	$0, %rax
	movq	40(%rsp), %rcx
	movq	%rax, %rdx
	callq	"??$_Deallocate@$0BA@$0A@@std@@YAXPEAX_K@Z"
	nop
	addq	$56, %rsp
	retq
	.seh_handlerdata
	.section	.text,"xr",discard,"?deallocate@?$allocator@D@std@@QEAAXQEAD_K@Z"
	.seh_endproc
                                        # -- End function
	.def	 "?assign@?$_Narrow_char_traits@DH@std@@SAXAEADAEBD@Z";
	.scl	2;
	.type	32;
	.endef
	.section	.text,"xr",discard,"?assign@?$_Narrow_char_traits@DH@std@@SAXAEADAEBD@Z"
	.globl	"?assign@?$_Narrow_char_traits@DH@std@@SAXAEADAEBD@Z" # -- Begin function ?assign@?$_Narrow_char_traits@DH@std@@SAXAEADAEBD@Z
	.p2align	4, 0x90
"?assign@?$_Narrow_char_traits@DH@std@@SAXAEADAEBD@Z": # @"?assign@?$_Narrow_char_traits@DH@std@@SAXAEADAEBD@Z"
.seh_proc "?assign@?$_Narrow_char_traits@DH@std@@SAXAEADAEBD@Z"
# %bb.0:
	subq	$16, %rsp
	.seh_stackalloc 16
	.seh_endprologue
	movq	%rdx, 8(%rsp)
	movq	%rcx, (%rsp)
	movq	8(%rsp), %rax
	movb	(%rax), %r8b
	movq	(%rsp), %rax
	movb	%r8b, (%rax)
	addq	$16, %rsp
	retq
	.seh_handlerdata
	.section	.text,"xr",discard,"?assign@?$_Narrow_char_traits@DH@std@@SAXAEADAEBD@Z"
	.seh_endproc
                                        # -- End function
	.def	 "?_Get_first@?$_Compressed_pair@V?$allocator@D@std@@V?$_String_val@U?$_Simple_types@D@std@@@2@$00@std@@QEAAAEAV?$allocator@D@2@XZ";
	.scl	2;
	.type	32;
	.endef
	.section	.text,"xr",discard,"?_Get_first@?$_Compressed_pair@V?$allocator@D@std@@V?$_String_val@U?$_Simple_types@D@std@@@2@$00@std@@QEAAAEAV?$allocator@D@2@XZ"
	.globl	"?_Get_first@?$_Compressed_pair@V?$allocator@D@std@@V?$_String_val@U?$_Simple_types@D@std@@@2@$00@std@@QEAAAEAV?$allocator@D@2@XZ" # -- Begin function ?_Get_first@?$_Compressed_pair@V?$allocator@D@std@@V?$_String_val@U?$_Simple_types@D@std@@@2@$00@std@@QEAAAEAV?$allocator@D@2@XZ
	.p2align	4, 0x90
"?_Get_first@?$_Compressed_pair@V?$allocator@D@std@@V?$_String_val@U?$_Simple_types@D@std@@@2@$00@std@@QEAAAEAV?$allocator@D@2@XZ": # @"?_Get_first@?$_Compressed_pair@V?$allocator@D@std@@V?$_String_val@U?$_Simple_types@D@std@@@2@$00@std@@QEAAAEAV?$allocator@D@2@XZ"
.seh_proc "?_Get_first@?$_Compressed_pair@V?$allocator@D@std@@V?$_String_val@U?$_Simple_types@D@std@@@2@$00@std@@QEAAAEAV?$allocator@D@2@XZ"
# %bb.0:
	pushq	%rax
	.seh_stackalloc 8
	.seh_endprologue
	movq	%rcx, (%rsp)
	movq	(%rsp), %rax
	popq	%rcx
	retq
	.seh_handlerdata
	.section	.text,"xr",discard,"?_Get_first@?$_Compressed_pair@V?$allocator@D@std@@V?$_String_val@U?$_Simple_types@D@std@@@2@$00@std@@QEAAAEAV?$allocator@D@2@XZ"
	.seh_endproc
                                        # -- End function
	.def	 "??$_Deallocate@$0BA@$0A@@std@@YAXPEAX_K@Z";
	.scl	2;
	.type	32;
	.endef
	.section	.text,"xr",discard,"??$_Deallocate@$0BA@$0A@@std@@YAXPEAX_K@Z"
	.globl	"??$_Deallocate@$0BA@$0A@@std@@YAXPEAX_K@Z" # -- Begin function ??$_Deallocate@$0BA@$0A@@std@@YAXPEAX_K@Z
	.p2align	4, 0x90
"??$_Deallocate@$0BA@$0A@@std@@YAXPEAX_K@Z": # @"??$_Deallocate@$0BA@$0A@@std@@YAXPEAX_K@Z"
.Lfunc_begin1:
.seh_proc "??$_Deallocate@$0BA@$0A@@std@@YAXPEAX_K@Z"
	.seh_handler __CxxFrameHandler3, @unwind, @except
# %bb.0:
	pushq	%rbp
	.seh_pushreg %rbp
	subq	$64, %rsp
	.seh_stackalloc 64
	leaq	64(%rsp), %rbp
	.seh_setframe %rbp, 64
	.seh_endprologue
	movq	$-2, -8(%rbp)
	movq	%rdx, -16(%rbp)
	movq	%rcx, -24(%rbp)
	cmpq	$4096, -16(%rbp)        # imm = 0x1000
	jb	.LBB35_3
# %bb.1:
.Ltmp2:
	leaq	-24(%rbp), %rcx
	leaq	-16(%rbp), %rdx
	callq	"?_Adjust_manually_vector_aligned@std@@YAXAEAPEAXAEA_K@Z"
.Ltmp3:
	jmp	.LBB35_2
.LBB35_2:
	jmp	.LBB35_3
.LBB35_3:
	movq	-16(%rbp), %rdx
	movq	-24(%rbp), %rcx
	callq	"??3@YAXPEAX_K@Z"
	nop
	addq	$64, %rsp
	popq	%rbp
	retq
	.seh_handlerdata
	.long	("$cppxdata$??$_Deallocate@$0BA@$0A@@std@@YAXPEAX_K@Z")@IMGREL
	.section	.text,"xr",discard,"??$_Deallocate@$0BA@$0A@@std@@YAXPEAX_K@Z"
	.seh_endproc
	.def	 "?dtor$4@?0???$_Deallocate@$0BA@$0A@@std@@YAXPEAX_K@Z@4HA";
	.scl	3;
	.type	32;
	.endef
	.p2align	4, 0x90
"?dtor$4@?0???$_Deallocate@$0BA@$0A@@std@@YAXPEAX_K@Z@4HA":
.seh_proc "?dtor$4@?0???$_Deallocate@$0BA@$0A@@std@@YAXPEAX_K@Z@4HA"
.LBB35_4:
	movq	%rdx, 16(%rsp)
	pushq	%rbp
	.seh_pushreg %rbp
	subq	$32, %rsp
	.seh_stackalloc 32
	leaq	64(%rdx), %rbp
	.seh_endprologue
	callq	__std_terminate
	int3
.Lfunc_end1:
	.seh_handlerdata
	.section	.text,"xr",discard,"??$_Deallocate@$0BA@$0A@@std@@YAXPEAX_K@Z"
	.seh_endproc
	.section	.xdata,"dr",associative,"??$_Deallocate@$0BA@$0A@@std@@YAXPEAX_K@Z"
	.p2align	2
"$cppxdata$??$_Deallocate@$0BA@$0A@@std@@YAXPEAX_K@Z":
	.long	429065506               # MagicNumber
	.long	1                       # MaxState
	.long	("$stateUnwindMap$??$_Deallocate@$0BA@$0A@@std@@YAXPEAX_K@Z")@IMGREL # UnwindMap
	.long	0                       # NumTryBlocks
	.long	0                       # TryBlockMap
	.long	3                       # IPMapEntries
	.long	("$ip2state$??$_Deallocate@$0BA@$0A@@std@@YAXPEAX_K@Z")@IMGREL # IPToStateXData
	.long	56                      # UnwindHelp
	.long	0                       # ESTypeList
	.long	1                       # EHFlags
"$stateUnwindMap$??$_Deallocate@$0BA@$0A@@std@@YAXPEAX_K@Z":
	.long	-1                      # ToState
	.long	"?dtor$4@?0???$_Deallocate@$0BA@$0A@@std@@YAXPEAX_K@Z@4HA"@IMGREL # Action
"$ip2state$??$_Deallocate@$0BA@$0A@@std@@YAXPEAX_K@Z":
	.long	.Lfunc_begin1@IMGREL    # IP
	.long	-1                      # ToState
	.long	.Ltmp2@IMGREL+1         # IP
	.long	0                       # ToState
	.long	.Ltmp3@IMGREL+1         # IP
	.long	-1                      # ToState
	.section	.text,"xr",discard,"??$_Deallocate@$0BA@$0A@@std@@YAXPEAX_K@Z"
                                        # -- End function
	.def	 "?_Adjust_manually_vector_aligned@std@@YAXAEAPEAXAEA_K@Z";
	.scl	2;
	.type	32;
	.endef
	.section	.text,"xr",discard,"?_Adjust_manually_vector_aligned@std@@YAXAEAPEAXAEA_K@Z"
	.globl	"?_Adjust_manually_vector_aligned@std@@YAXAEAPEAXAEA_K@Z" # -- Begin function ?_Adjust_manually_vector_aligned@std@@YAXAEAPEAXAEA_K@Z
	.p2align	4, 0x90
"?_Adjust_manually_vector_aligned@std@@YAXAEAPEAXAEA_K@Z": # @"?_Adjust_manually_vector_aligned@std@@YAXAEAPEAXAEA_K@Z"
.seh_proc "?_Adjust_manually_vector_aligned@std@@YAXAEAPEAXAEA_K@Z"
# %bb.0:
	subq	$88, %rsp
	.seh_stackalloc 88
	.seh_endprologue
	movq	%rdx, 80(%rsp)
	movq	%rcx, 72(%rsp)
	movq	80(%rsp), %rax
	movq	(%rax), %rcx
	addq	$39, %rcx
	movq	%rcx, (%rax)
	movq	72(%rsp), %rax
	movq	(%rax), %rax
	movq	%rax, 64(%rsp)
	movq	64(%rsp), %rax
	movq	-8(%rax), %rax
	movq	%rax, 56(%rsp)
	movq	$8, 48(%rsp)
	movq	72(%rsp), %rax
	movq	(%rax), %rax
	subq	56(%rsp), %rax
	movq	%rax, 40(%rsp)
# %bb.1:
	cmpq	$8, 40(%rsp)
	jb	.LBB36_4
# %bb.2:
	cmpq	$39, 40(%rsp)
	ja	.LBB36_4
# %bb.3:
	jmp	.LBB36_6
.LBB36_4:
	jmp	.LBB36_5
.LBB36_5:
	callq	_invalid_parameter_noinfo_noreturn
.LBB36_6:
	jmp	.LBB36_7
.LBB36_7:
	movq	56(%rsp), %rax
	movq	72(%rsp), %rcx
	movq	%rax, (%rcx)
	addq	$88, %rsp
	retq
	.seh_handlerdata
	.section	.text,"xr",discard,"?_Adjust_manually_vector_aligned@std@@YAXAEAPEAXAEA_K@Z"
	.seh_endproc
                                        # -- End function
	.def	 "??1?$_String_val@U?$_Simple_types@D@std@@@std@@QEAA@XZ";
	.scl	2;
	.type	32;
	.endef
	.section	.text,"xr",discard,"??1?$_String_val@U?$_Simple_types@D@std@@@std@@QEAA@XZ"
	.globl	"??1?$_String_val@U?$_Simple_types@D@std@@@std@@QEAA@XZ" # -- Begin function ??1?$_String_val@U?$_Simple_types@D@std@@@std@@QEAA@XZ
	.p2align	4, 0x90
"??1?$_String_val@U?$_Simple_types@D@std@@@std@@QEAA@XZ": # @"??1?$_String_val@U?$_Simple_types@D@std@@@std@@QEAA@XZ"
.seh_proc "??1?$_String_val@U?$_Simple_types@D@std@@@std@@QEAA@XZ"
# %bb.0:
	subq	$40, %rsp
	.seh_stackalloc 40
	.seh_endprologue
	movq	%rcx, 32(%rsp)
	movq	32(%rsp), %rcx
	callq	"??1_Bxty@?$_String_val@U?$_Simple_types@D@std@@@std@@QEAA@XZ"
	nop
	addq	$40, %rsp
	retq
	.seh_handlerdata
	.section	.text,"xr",discard,"??1?$_String_val@U?$_Simple_types@D@std@@@std@@QEAA@XZ"
	.seh_endproc
                                        # -- End function
	.def	 "??1_Bxty@?$_String_val@U?$_Simple_types@D@std@@@std@@QEAA@XZ";
	.scl	2;
	.type	32;
	.endef
	.section	.text,"xr",discard,"??1_Bxty@?$_String_val@U?$_Simple_types@D@std@@@std@@QEAA@XZ"
	.globl	"??1_Bxty@?$_String_val@U?$_Simple_types@D@std@@@std@@QEAA@XZ" # -- Begin function ??1_Bxty@?$_String_val@U?$_Simple_types@D@std@@@std@@QEAA@XZ
	.p2align	4, 0x90
"??1_Bxty@?$_String_val@U?$_Simple_types@D@std@@@std@@QEAA@XZ": # @"??1_Bxty@?$_String_val@U?$_Simple_types@D@std@@@std@@QEAA@XZ"
.seh_proc "??1_Bxty@?$_String_val@U?$_Simple_types@D@std@@@std@@QEAA@XZ"
# %bb.0:
	pushq	%rax
	.seh_stackalloc 8
	.seh_endprologue
	movq	%rcx, (%rsp)
	popq	%rax
	retq
	.seh_handlerdata
	.section	.text,"xr",discard,"??1_Bxty@?$_String_val@U?$_Simple_types@D@std@@@std@@QEAA@XZ"
	.seh_endproc
                                        # -- End function
	.def	 "??$?0$$V@?$_Compressed_pair@V?$allocator@D@std@@V?$_String_val@U?$_Simple_types@D@std@@@2@$00@std@@QEAA@U_Zero_then_variadic_args_t@1@@Z";
	.scl	2;
	.type	32;
	.endef
	.section	.text,"xr",discard,"??$?0$$V@?$_Compressed_pair@V?$allocator@D@std@@V?$_String_val@U?$_Simple_types@D@std@@@2@$00@std@@QEAA@U_Zero_then_variadic_args_t@1@@Z"
	.globl	"??$?0$$V@?$_Compressed_pair@V?$allocator@D@std@@V?$_String_val@U?$_Simple_types@D@std@@@2@$00@std@@QEAA@U_Zero_then_variadic_args_t@1@@Z" # -- Begin function ??$?0$$V@?$_Compressed_pair@V?$allocator@D@std@@V?$_String_val@U?$_Simple_types@D@std@@@2@$00@std@@QEAA@U_Zero_then_variadic_args_t@1@@Z
	.p2align	4, 0x90
"??$?0$$V@?$_Compressed_pair@V?$allocator@D@std@@V?$_String_val@U?$_Simple_types@D@std@@@2@$00@std@@QEAA@U_Zero_then_variadic_args_t@1@@Z": # @"??$?0$$V@?$_Compressed_pair@V?$allocator@D@std@@V?$_String_val@U?$_Simple_types@D@std@@@2@$00@std@@QEAA@U_Zero_then_variadic_args_t@1@@Z"
.seh_proc "??$?0$$V@?$_Compressed_pair@V?$allocator@D@std@@V?$_String_val@U?$_Simple_types@D@std@@@2@$00@std@@QEAA@U_Zero_then_variadic_args_t@1@@Z"
# %bb.0:
	subq	$72, %rsp
	.seh_stackalloc 72
	.seh_endprologue
	movb	%dl, 64(%rsp)
	movq	%rcx, 56(%rsp)
	movq	56(%rsp), %rax
	movq	%rax, %rcx
	movq	%rax, 48(%rsp)          # 8-byte Spill
	callq	"??0?$allocator@D@std@@QEAA@XZ"
	movq	48(%rsp), %rcx          # 8-byte Reload
	movq	%rax, 40(%rsp)          # 8-byte Spill
	callq	"??0?$_String_val@U?$_Simple_types@D@std@@@std@@QEAA@XZ"
	movq	48(%rsp), %rcx          # 8-byte Reload
	movq	%rax, 32(%rsp)          # 8-byte Spill
	movq	%rcx, %rax
	addq	$72, %rsp
	retq
	.seh_handlerdata
	.section	.text,"xr",discard,"??$?0$$V@?$_Compressed_pair@V?$allocator@D@std@@V?$_String_val@U?$_Simple_types@D@std@@@2@$00@std@@QEAA@U_Zero_then_variadic_args_t@1@@Z"
	.seh_endproc
                                        # -- End function
	.def	 "??0_Fake_proxy_ptr_impl@std@@QEAA@AEBU_Fake_allocator@1@AEBU_Container_base0@1@@Z";
	.scl	2;
	.type	32;
	.endef
	.section	.text,"xr",discard,"??0_Fake_proxy_ptr_impl@std@@QEAA@AEBU_Fake_allocator@1@AEBU_Container_base0@1@@Z"
	.globl	"??0_Fake_proxy_ptr_impl@std@@QEAA@AEBU_Fake_allocator@1@AEBU_Container_base0@1@@Z" # -- Begin function ??0_Fake_proxy_ptr_impl@std@@QEAA@AEBU_Fake_allocator@1@AEBU_Container_base0@1@@Z
	.p2align	4, 0x90
"??0_Fake_proxy_ptr_impl@std@@QEAA@AEBU_Fake_allocator@1@AEBU_Container_base0@1@@Z": # @"??0_Fake_proxy_ptr_impl@std@@QEAA@AEBU_Fake_allocator@1@AEBU_Container_base0@1@@Z"
.seh_proc "??0_Fake_proxy_ptr_impl@std@@QEAA@AEBU_Fake_allocator@1@AEBU_Container_base0@1@@Z"
# %bb.0:
	subq	$24, %rsp
	.seh_stackalloc 24
	.seh_endprologue
	movq	%r8, 16(%rsp)
	movq	%rdx, 8(%rsp)
	movq	%rcx, (%rsp)
	movq	(%rsp), %rax
	addq	$24, %rsp
	retq
	.seh_handlerdata
	.section	.text,"xr",discard,"??0_Fake_proxy_ptr_impl@std@@QEAA@AEBU_Fake_allocator@1@AEBU_Container_base0@1@@Z"
	.seh_endproc
                                        # -- End function
	.def	 "?_Tidy_init@?$basic_string@DU?$char_traits@D@std@@V?$allocator@D@2@@std@@AEAAXXZ";
	.scl	2;
	.type	32;
	.endef
	.section	.text,"xr",discard,"?_Tidy_init@?$basic_string@DU?$char_traits@D@std@@V?$allocator@D@2@@std@@AEAAXXZ"
	.globl	"?_Tidy_init@?$basic_string@DU?$char_traits@D@std@@V?$allocator@D@2@@std@@AEAAXXZ" # -- Begin function ?_Tidy_init@?$basic_string@DU?$char_traits@D@std@@V?$allocator@D@2@@std@@AEAAXXZ
	.p2align	4, 0x90
"?_Tidy_init@?$basic_string@DU?$char_traits@D@std@@V?$allocator@D@2@@std@@AEAAXXZ": # @"?_Tidy_init@?$basic_string@DU?$char_traits@D@std@@V?$allocator@D@2@@std@@AEAAXXZ"
.seh_proc "?_Tidy_init@?$basic_string@DU?$char_traits@D@std@@V?$allocator@D@2@@std@@AEAAXXZ"
# %bb.0:
	subq	$56, %rsp
	.seh_stackalloc 56
	.seh_endprologue
	movq	%rcx, 48(%rsp)
	movq	48(%rsp), %rax
	movq	$0, 16(%rax)
	movq	$15, 24(%rax)
	movb	$0, 47(%rsp)
	movq	%rax, %rcx
	leaq	47(%rsp), %rdx
	callq	"?assign@?$_Narrow_char_traits@DH@std@@SAXAEADAEBD@Z"
	nop
	addq	$56, %rsp
	retq
	.seh_handlerdata
	.section	.text,"xr",discard,"?_Tidy_init@?$basic_string@DU?$char_traits@D@std@@V?$allocator@D@2@@std@@AEAAXXZ"
	.seh_endproc
                                        # -- End function
	.def	 "?assign@?$basic_string@DU?$char_traits@D@std@@V?$allocator@D@2@@std@@QEAAAEAV12@QEBD@Z";
	.scl	2;
	.type	32;
	.endef
	.section	.text,"xr",discard,"?assign@?$basic_string@DU?$char_traits@D@std@@V?$allocator@D@2@@std@@QEAAAEAV12@QEBD@Z"
	.globl	"?assign@?$basic_string@DU?$char_traits@D@std@@V?$allocator@D@2@@std@@QEAAAEAV12@QEBD@Z" # -- Begin function ?assign@?$basic_string@DU?$char_traits@D@std@@V?$allocator@D@2@@std@@QEAAAEAV12@QEBD@Z
	.p2align	4, 0x90
"?assign@?$basic_string@DU?$char_traits@D@std@@V?$allocator@D@2@@std@@QEAAAEAV12@QEBD@Z": # @"?assign@?$basic_string@DU?$char_traits@D@std@@V?$allocator@D@2@@std@@QEAAAEAV12@QEBD@Z"
.seh_proc "?assign@?$basic_string@DU?$char_traits@D@std@@V?$allocator@D@2@@std@@QEAAAEAV12@QEBD@Z"
# %bb.0:
	subq	$56, %rsp
	.seh_stackalloc 56
	.seh_endprologue
	movq	%rdx, 48(%rsp)
	movq	%rcx, 40(%rsp)
	movq	40(%rsp), %rcx
	movq	48(%rsp), %rax
	movq	%rcx, 32(%rsp)          # 8-byte Spill
	movq	%rax, %rcx
	callq	"?length@?$_Narrow_char_traits@DH@std@@SA_KQEBD@Z"
	movq	%rax, %rcx
	callq	"??$_Convert_size@_K@std@@YA_K_K@Z"
	movq	48(%rsp), %rdx
	movq	32(%rsp), %rcx          # 8-byte Reload
	movq	%rax, %r8
	callq	"?assign@?$basic_string@DU?$char_traits@D@std@@V?$allocator@D@2@@std@@QEAAAEAV12@QEBD_K@Z"
	nop
	addq	$56, %rsp
	retq
	.seh_handlerdata
	.section	.text,"xr",discard,"?assign@?$basic_string@DU?$char_traits@D@std@@V?$allocator@D@2@@std@@QEAAAEAV12@QEBD@Z"
	.seh_endproc
                                        # -- End function
	.def	 "?_Release@_Fake_proxy_ptr_impl@std@@QEAAXXZ";
	.scl	2;
	.type	32;
	.endef
	.section	.text,"xr",discard,"?_Release@_Fake_proxy_ptr_impl@std@@QEAAXXZ"
	.globl	"?_Release@_Fake_proxy_ptr_impl@std@@QEAAXXZ" # -- Begin function ?_Release@_Fake_proxy_ptr_impl@std@@QEAAXXZ
	.p2align	4, 0x90
"?_Release@_Fake_proxy_ptr_impl@std@@QEAAXXZ": # @"?_Release@_Fake_proxy_ptr_impl@std@@QEAAXXZ"
.seh_proc "?_Release@_Fake_proxy_ptr_impl@std@@QEAAXXZ"
# %bb.0:
	pushq	%rax
	.seh_stackalloc 8
	.seh_endprologue
	movq	%rcx, (%rsp)
	popq	%rax
	retq
	.seh_handlerdata
	.section	.text,"xr",discard,"?_Release@_Fake_proxy_ptr_impl@std@@QEAAXXZ"
	.seh_endproc
                                        # -- End function
	.def	 "??0?$allocator@D@std@@QEAA@XZ";
	.scl	2;
	.type	32;
	.endef
	.section	.text,"xr",discard,"??0?$allocator@D@std@@QEAA@XZ"
	.globl	"??0?$allocator@D@std@@QEAA@XZ" # -- Begin function ??0?$allocator@D@std@@QEAA@XZ
	.p2align	4, 0x90
"??0?$allocator@D@std@@QEAA@XZ":        # @"??0?$allocator@D@std@@QEAA@XZ"
.seh_proc "??0?$allocator@D@std@@QEAA@XZ"
# %bb.0:
	pushq	%rax
	.seh_stackalloc 8
	.seh_endprologue
	movq	%rcx, (%rsp)
	movq	(%rsp), %rax
	popq	%rcx
	retq
	.seh_handlerdata
	.section	.text,"xr",discard,"??0?$allocator@D@std@@QEAA@XZ"
	.seh_endproc
                                        # -- End function
	.def	 "??0?$_String_val@U?$_Simple_types@D@std@@@std@@QEAA@XZ";
	.scl	2;
	.type	32;
	.endef
	.section	.text,"xr",discard,"??0?$_String_val@U?$_Simple_types@D@std@@@std@@QEAA@XZ"
	.globl	"??0?$_String_val@U?$_Simple_types@D@std@@@std@@QEAA@XZ" # -- Begin function ??0?$_String_val@U?$_Simple_types@D@std@@@std@@QEAA@XZ
	.p2align	4, 0x90
"??0?$_String_val@U?$_Simple_types@D@std@@@std@@QEAA@XZ": # @"??0?$_String_val@U?$_Simple_types@D@std@@@std@@QEAA@XZ"
.seh_proc "??0?$_String_val@U?$_Simple_types@D@std@@@std@@QEAA@XZ"
# %bb.0:
	subq	$56, %rsp
	.seh_stackalloc 56
	.seh_endprologue
	movq	%rcx, 48(%rsp)
	movq	48(%rsp), %rax
	movq	%rax, %rcx
	movq	%rax, 40(%rsp)          # 8-byte Spill
	callq	"??0_Bxty@?$_String_val@U?$_Simple_types@D@std@@@std@@QEAA@XZ"
	movq	40(%rsp), %rcx          # 8-byte Reload
	movq	$0, 16(%rcx)
	movq	$0, 24(%rcx)
	movq	%rax, 32(%rsp)          # 8-byte Spill
	movq	%rcx, %rax
	addq	$56, %rsp
	retq
	.seh_handlerdata
	.section	.text,"xr",discard,"??0?$_String_val@U?$_Simple_types@D@std@@@std@@QEAA@XZ"
	.seh_endproc
                                        # -- End function
	.def	 "??0_Bxty@?$_String_val@U?$_Simple_types@D@std@@@std@@QEAA@XZ";
	.scl	2;
	.type	32;
	.endef
	.section	.text,"xr",discard,"??0_Bxty@?$_String_val@U?$_Simple_types@D@std@@@std@@QEAA@XZ"
	.globl	"??0_Bxty@?$_String_val@U?$_Simple_types@D@std@@@std@@QEAA@XZ" # -- Begin function ??0_Bxty@?$_String_val@U?$_Simple_types@D@std@@@std@@QEAA@XZ
	.p2align	4, 0x90
"??0_Bxty@?$_String_val@U?$_Simple_types@D@std@@@std@@QEAA@XZ": # @"??0_Bxty@?$_String_val@U?$_Simple_types@D@std@@@std@@QEAA@XZ"
.seh_proc "??0_Bxty@?$_String_val@U?$_Simple_types@D@std@@@std@@QEAA@XZ"
# %bb.0:
	pushq	%rax
	.seh_stackalloc 8
	.seh_endprologue
	movq	%rcx, (%rsp)
	movq	(%rsp), %rax
	popq	%rcx
	retq
	.seh_handlerdata
	.section	.text,"xr",discard,"??0_Bxty@?$_String_val@U?$_Simple_types@D@std@@@std@@QEAA@XZ"
	.seh_endproc
                                        # -- End function
	.def	 "?assign@?$basic_string@DU?$char_traits@D@std@@V?$allocator@D@2@@std@@QEAAAEAV12@QEBD_K@Z";
	.scl	2;
	.type	32;
	.endef
	.section	.text,"xr",discard,"?assign@?$basic_string@DU?$char_traits@D@std@@V?$allocator@D@2@@std@@QEAAAEAV12@QEBD_K@Z"
	.globl	"?assign@?$basic_string@DU?$char_traits@D@std@@V?$allocator@D@2@@std@@QEAAAEAV12@QEBD_K@Z" # -- Begin function ?assign@?$basic_string@DU?$char_traits@D@std@@V?$allocator@D@2@@std@@QEAAAEAV12@QEBD_K@Z
	.p2align	4, 0x90
"?assign@?$basic_string@DU?$char_traits@D@std@@V?$allocator@D@2@@std@@QEAAAEAV12@QEBD_K@Z": # @"?assign@?$basic_string@DU?$char_traits@D@std@@V?$allocator@D@2@@std@@QEAAAEAV12@QEBD_K@Z"
.seh_proc "?assign@?$basic_string@DU?$char_traits@D@std@@V?$allocator@D@2@@std@@QEAAAEAV12@QEBD_K@Z"
# %bb.0:
	subq	$104, %rsp
	.seh_stackalloc 104
	.seh_endprologue
	movq	%r8, 88(%rsp)
	movq	%rdx, 80(%rsp)
	movq	%rcx, 72(%rsp)
	movq	72(%rsp), %rax
	movq	88(%rsp), %rcx
	cmpq	24(%rax), %rcx
	movq	%rax, 48(%rsp)          # 8-byte Spill
	ja	.LBB47_2
# %bb.1:
	movq	48(%rsp), %rcx          # 8-byte Reload
	callq	"?_Myptr@?$_String_val@U?$_Simple_types@D@std@@@std@@QEAAPEADXZ"
	movq	%rax, 64(%rsp)
	movq	88(%rsp), %rax
	movq	48(%rsp), %rcx          # 8-byte Reload
	movq	%rax, 16(%rcx)
	movq	88(%rsp), %r8
	movq	80(%rsp), %rdx
	movq	64(%rsp), %rcx
	callq	"?move@?$_Narrow_char_traits@DH@std@@SAPEADQEADQEBD_K@Z"
	movb	$0, 63(%rsp)
	movq	64(%rsp), %rcx
	addq	88(%rsp), %rcx
	leaq	63(%rsp), %rdx
	movq	%rax, 40(%rsp)          # 8-byte Spill
	callq	"?assign@?$_Narrow_char_traits@DH@std@@SAXAEADAEBD@Z"
	movq	48(%rsp), %rax          # 8-byte Reload
	movq	%rax, 96(%rsp)
	jmp	.LBB47_3
.LBB47_2:
	movq	80(%rsp), %r9
	movq	88(%rsp), %rdx
	movb	56(%rsp), %r8b
	movq	48(%rsp), %rcx          # 8-byte Reload
	callq	"??$_Reallocate_for@V<lambda_1>@?0??assign@?$basic_string@DU?$char_traits@D@std@@V?$allocator@D@2@@std@@QEAAAEAV34@QEBD_K@Z@PEBD@?$basic_string@DU?$char_traits@D@std@@V?$allocator@D@2@@std@@AEAAAEAV01@_KV<lambda_1>@?0??assign@01@QEAAAEAV01@QEBD0@Z@PEBD@Z"
	movq	%rax, 96(%rsp)
.LBB47_3:
	movq	96(%rsp), %rax
	addq	$104, %rsp
	retq
	.seh_handlerdata
	.section	.text,"xr",discard,"?assign@?$basic_string@DU?$char_traits@D@std@@V?$allocator@D@2@@std@@QEAAAEAV12@QEBD_K@Z"
	.seh_endproc
                                        # -- End function
	.def	 "??$_Convert_size@_K@std@@YA_K_K@Z";
	.scl	2;
	.type	32;
	.endef
	.section	.text,"xr",discard,"??$_Convert_size@_K@std@@YA_K_K@Z"
	.globl	"??$_Convert_size@_K@std@@YA_K_K@Z" # -- Begin function ??$_Convert_size@_K@std@@YA_K_K@Z
	.p2align	4, 0x90
"??$_Convert_size@_K@std@@YA_K_K@Z":    # @"??$_Convert_size@_K@std@@YA_K_K@Z"
.seh_proc "??$_Convert_size@_K@std@@YA_K_K@Z"
# %bb.0:
	pushq	%rax
	.seh_stackalloc 8
	.seh_endprologue
	movq	%rcx, (%rsp)
	movq	(%rsp), %rax
	popq	%rcx
	retq
	.seh_handlerdata
	.section	.text,"xr",discard,"??$_Convert_size@_K@std@@YA_K_K@Z"
	.seh_endproc
                                        # -- End function
	.def	 "?length@?$_Narrow_char_traits@DH@std@@SA_KQEBD@Z";
	.scl	2;
	.type	32;
	.endef
	.section	.text,"xr",discard,"?length@?$_Narrow_char_traits@DH@std@@SA_KQEBD@Z"
	.globl	"?length@?$_Narrow_char_traits@DH@std@@SA_KQEBD@Z" # -- Begin function ?length@?$_Narrow_char_traits@DH@std@@SA_KQEBD@Z
	.p2align	4, 0x90
"?length@?$_Narrow_char_traits@DH@std@@SA_KQEBD@Z": # @"?length@?$_Narrow_char_traits@DH@std@@SA_KQEBD@Z"
.Lfunc_begin2:
.seh_proc "?length@?$_Narrow_char_traits@DH@std@@SA_KQEBD@Z"
	.seh_handler __CxxFrameHandler3, @unwind, @except
# %bb.0:
	pushq	%rbp
	.seh_pushreg %rbp
	subq	$64, %rsp
	.seh_stackalloc 64
	leaq	64(%rsp), %rbp
	.seh_setframe %rbp, 64
	.seh_endprologue
	movq	$-2, -8(%rbp)
	movq	%rcx, -16(%rbp)
	movq	-16(%rbp), %rcx
.Ltmp4:
	callq	strlen
.Ltmp5:
	movq	%rax, -24(%rbp)         # 8-byte Spill
	jmp	.LBB49_1
.LBB49_1:
	movq	-24(%rbp), %rax         # 8-byte Reload
	addq	$64, %rsp
	popq	%rbp
	retq
	.seh_handlerdata
	.long	("$cppxdata$?length@?$_Narrow_char_traits@DH@std@@SA_KQEBD@Z")@IMGREL
	.section	.text,"xr",discard,"?length@?$_Narrow_char_traits@DH@std@@SA_KQEBD@Z"
	.seh_endproc
	.def	 "?dtor$2@?0??length@?$_Narrow_char_traits@DH@std@@SA_KQEBD@Z@4HA";
	.scl	3;
	.type	32;
	.endef
	.p2align	4, 0x90
"?dtor$2@?0??length@?$_Narrow_char_traits@DH@std@@SA_KQEBD@Z@4HA":
.seh_proc "?dtor$2@?0??length@?$_Narrow_char_traits@DH@std@@SA_KQEBD@Z@4HA"
.LBB49_2:
	movq	%rdx, 16(%rsp)
	pushq	%rbp
	.seh_pushreg %rbp
	subq	$32, %rsp
	.seh_stackalloc 32
	leaq	64(%rdx), %rbp
	.seh_endprologue
	callq	__std_terminate
	int3
.Lfunc_end2:
	.seh_handlerdata
	.section	.text,"xr",discard,"?length@?$_Narrow_char_traits@DH@std@@SA_KQEBD@Z"
	.seh_endproc
	.section	.xdata,"dr",associative,"?length@?$_Narrow_char_traits@DH@std@@SA_KQEBD@Z"
	.p2align	2
"$cppxdata$?length@?$_Narrow_char_traits@DH@std@@SA_KQEBD@Z":
	.long	429065506               # MagicNumber
	.long	1                       # MaxState
	.long	("$stateUnwindMap$?length@?$_Narrow_char_traits@DH@std@@SA_KQEBD@Z")@IMGREL # UnwindMap
	.long	0                       # NumTryBlocks
	.long	0                       # TryBlockMap
	.long	3                       # IPMapEntries
	.long	("$ip2state$?length@?$_Narrow_char_traits@DH@std@@SA_KQEBD@Z")@IMGREL # IPToStateXData
	.long	56                      # UnwindHelp
	.long	0                       # ESTypeList
	.long	1                       # EHFlags
"$stateUnwindMap$?length@?$_Narrow_char_traits@DH@std@@SA_KQEBD@Z":
	.long	-1                      # ToState
	.long	"?dtor$2@?0??length@?$_Narrow_char_traits@DH@std@@SA_KQEBD@Z@4HA"@IMGREL # Action
"$ip2state$?length@?$_Narrow_char_traits@DH@std@@SA_KQEBD@Z":
	.long	.Lfunc_begin2@IMGREL    # IP
	.long	-1                      # ToState
	.long	.Ltmp4@IMGREL+1         # IP
	.long	0                       # ToState
	.long	.Ltmp5@IMGREL+1         # IP
	.long	-1                      # ToState
	.section	.text,"xr",discard,"?length@?$_Narrow_char_traits@DH@std@@SA_KQEBD@Z"
                                        # -- End function
	.def	 "?_Myptr@?$_String_val@U?$_Simple_types@D@std@@@std@@QEAAPEADXZ";
	.scl	2;
	.type	32;
	.endef
	.section	.text,"xr",discard,"?_Myptr@?$_String_val@U?$_Simple_types@D@std@@@std@@QEAAPEADXZ"
	.globl	"?_Myptr@?$_String_val@U?$_Simple_types@D@std@@@std@@QEAAPEADXZ" # -- Begin function ?_Myptr@?$_String_val@U?$_Simple_types@D@std@@@std@@QEAAPEADXZ
	.p2align	4, 0x90
"?_Myptr@?$_String_val@U?$_Simple_types@D@std@@@std@@QEAAPEADXZ": # @"?_Myptr@?$_String_val@U?$_Simple_types@D@std@@@std@@QEAAPEADXZ"
.seh_proc "?_Myptr@?$_String_val@U?$_Simple_types@D@std@@@std@@QEAAPEADXZ"
# %bb.0:
	subq	$56, %rsp
	.seh_stackalloc 56
	.seh_endprologue
	movq	%rcx, 48(%rsp)
	movq	48(%rsp), %rax
	movq	%rax, %rcx
	movq	%rcx, 40(%rsp)
	movq	%rax, %rcx
	movq	%rax, 32(%rsp)          # 8-byte Spill
	callq	"?_Large_string_engaged@?$_String_val@U?$_Simple_types@D@std@@@std@@QEBA_NXZ"
	testb	$1, %al
	jne	.LBB50_1
	jmp	.LBB50_2
.LBB50_1:
	movq	32(%rsp), %rax          # 8-byte Reload
	movq	(%rax), %rcx
	callq	"??$_Unfancy@D@std@@YAPEADPEAD@Z"
	movq	%rax, 40(%rsp)
.LBB50_2:
	movq	40(%rsp), %rax
	addq	$56, %rsp
	retq
	.seh_handlerdata
	.section	.text,"xr",discard,"?_Myptr@?$_String_val@U?$_Simple_types@D@std@@@std@@QEAAPEADXZ"
	.seh_endproc
                                        # -- End function
	.def	 "?move@?$_Narrow_char_traits@DH@std@@SAPEADQEADQEBD_K@Z";
	.scl	2;
	.type	32;
	.endef
	.section	.text,"xr",discard,"?move@?$_Narrow_char_traits@DH@std@@SAPEADQEADQEBD_K@Z"
	.globl	"?move@?$_Narrow_char_traits@DH@std@@SAPEADQEADQEBD_K@Z" # -- Begin function ?move@?$_Narrow_char_traits@DH@std@@SAPEADQEADQEBD_K@Z
	.p2align	4, 0x90
"?move@?$_Narrow_char_traits@DH@std@@SAPEADQEADQEBD_K@Z": # @"?move@?$_Narrow_char_traits@DH@std@@SAPEADQEADQEBD_K@Z"
.seh_proc "?move@?$_Narrow_char_traits@DH@std@@SAPEADQEADQEBD_K@Z"
# %bb.0:
	subq	$72, %rsp
	.seh_stackalloc 72
	.seh_endprologue
	movq	%r8, 64(%rsp)
	movq	%rdx, 56(%rsp)
	movq	%rcx, 48(%rsp)
	movq	48(%rsp), %rax
	movq	56(%rsp), %rdx
	movq	64(%rsp), %r8
	movq	%rax, %rcx
	movq	%rax, 40(%rsp)          # 8-byte Spill
	callq	memmove
	movq	40(%rsp), %rcx          # 8-byte Reload
	movq	%rax, 32(%rsp)          # 8-byte Spill
	movq	%rcx, %rax
	addq	$72, %rsp
	retq
	.seh_handlerdata
	.section	.text,"xr",discard,"?move@?$_Narrow_char_traits@DH@std@@SAPEADQEADQEBD_K@Z"
	.seh_endproc
                                        # -- End function
	.def	 "??$_Reallocate_for@V<lambda_1>@?0??assign@?$basic_string@DU?$char_traits@D@std@@V?$allocator@D@2@@std@@QEAAAEAV34@QEBD_K@Z@PEBD@?$basic_string@DU?$char_traits@D@std@@V?$allocator@D@2@@std@@AEAAAEAV01@_KV<lambda_1>@?0??assign@01@QEAAAEAV01@QEBD0@Z@PEBD@Z";
	.scl	2;
	.type	32;
	.endef
	.section	.text,"xr",discard,"??$_Reallocate_for@V<lambda_1>@?0??assign@?$basic_string@DU?$char_traits@D@std@@V?$allocator@D@2@@std@@QEAAAEAV34@QEBD_K@Z@PEBD@?$basic_string@DU?$char_traits@D@std@@V?$allocator@D@2@@std@@AEAAAEAV01@_KV<lambda_1>@?0??assign@01@QEAAAEAV01@QEBD0@Z@PEBD@Z"
	.globl	"??$_Reallocate_for@V<lambda_1>@?0??assign@?$basic_string@DU?$char_traits@D@std@@V?$allocator@D@2@@std@@QEAAAEAV34@QEBD_K@Z@PEBD@?$basic_string@DU?$char_traits@D@std@@V?$allocator@D@2@@std@@AEAAAEAV01@_KV<lambda_1>@?0??assign@01@QEAAAEAV01@QEBD0@Z@PEBD@Z" # -- Begin function ??$_Reallocate_for@V<lambda_1>@?0??assign@?$basic_string@DU?$char_traits@D@std@@V?$allocator@D@2@@std@@QEAAAEAV34@QEBD_K@Z@PEBD@?$basic_string@DU?$char_traits@D@std@@V?$allocator@D@2@@std@@AEAAAEAV01@_KV<lambda_1>@?0??assign@01@QEAAAEAV01@QEBD0@Z@PEBD@Z
	.p2align	4, 0x90
"??$_Reallocate_for@V<lambda_1>@?0??assign@?$basic_string@DU?$char_traits@D@std@@V?$allocator@D@2@@std@@QEAAAEAV34@QEBD_K@Z@PEBD@?$basic_string@DU?$char_traits@D@std@@V?$allocator@D@2@@std@@AEAAAEAV01@_KV<lambda_1>@?0??assign@01@QEAAAEAV01@QEBD0@Z@PEBD@Z": # @"??$_Reallocate_for@V<lambda_1>@?0??assign@?$basic_string@DU?$char_traits@D@std@@V?$allocator@D@2@@std@@QEAAAEAV34@QEBD_K@Z@PEBD@?$basic_string@DU?$char_traits@D@std@@V?$allocator@D@2@@std@@AEAAAEAV01@_KV<lambda_1>@?0??assign@01@QEAAAEAV01@QEBD0@Z@PEBD@Z"
.seh_proc "??$_Reallocate_for@V<lambda_1>@?0??assign@?$basic_string@DU?$char_traits@D@std@@V?$allocator@D@2@@std@@QEAAAEAV34@QEBD_K@Z@PEBD@?$basic_string@DU?$char_traits@D@std@@V?$allocator@D@2@@std@@AEAAAEAV01@_KV<lambda_1>@?0??assign@01@QEAAAEAV01@QEBD0@Z@PEBD@Z"
# %bb.0:
	subq	$136, %rsp
	.seh_stackalloc 136
	.seh_endprologue
	movb	%r8b, 128(%rsp)
	movq	%r9, 120(%rsp)
	movq	%rdx, 112(%rsp)
	movq	%rcx, 104(%rsp)
	movq	104(%rsp), %rax
	movq	112(%rsp), %rcx
	movq	%rcx, 64(%rsp)          # 8-byte Spill
	movq	%rax, %rcx
	movq	%rax, 56(%rsp)          # 8-byte Spill
	callq	"?max_size@?$basic_string@DU?$char_traits@D@std@@V?$allocator@D@2@@std@@QEBA_KXZ"
	movq	64(%rsp), %rcx          # 8-byte Reload
	cmpq	%rax, %rcx
	jbe	.LBB52_2
# %bb.1:
	callq	"?_Xlen_string@std@@YAXXZ"
.LBB52_2:
	movq	56(%rsp), %rax          # 8-byte Reload
	movq	24(%rax), %rcx
	movq	%rcx, 96(%rsp)
	movq	112(%rsp), %rdx
	movq	%rax, %rcx
	callq	"?_Calculate_growth@?$basic_string@DU?$char_traits@D@std@@V?$allocator@D@2@@std@@AEBA_K_K@Z"
	movq	%rax, 88(%rsp)
	movq	56(%rsp), %rcx          # 8-byte Reload
	callq	"?_Getal@?$basic_string@DU?$char_traits@D@std@@V?$allocator@D@2@@std@@AEAAAEAV?$allocator@D@2@XZ"
	movq	%rax, 80(%rsp)
	movq	80(%rsp), %rcx
	movq	88(%rsp), %rax
	addq	$1, %rax
	movq	%rax, %rdx
	callq	"?allocate@?$allocator@D@std@@QEAAPEAD_K@Z"
	movq	%rax, 72(%rsp)
	movq	56(%rsp), %rax          # 8-byte Reload
	movq	%rax, %rcx
	callq	"?_Orphan_all@_Container_base0@std@@QEAAXXZ"
	movq	112(%rsp), %rax
	movq	56(%rsp), %rcx          # 8-byte Reload
	movq	%rax, 16(%rcx)
	movq	88(%rsp), %rax
	movq	%rax, 24(%rcx)
	movq	120(%rsp), %r9
	movq	112(%rsp), %r8
	movq	72(%rsp), %rcx
	movq	%r9, 48(%rsp)           # 8-byte Spill
	movq	%r8, 40(%rsp)           # 8-byte Spill
	callq	"??$_Unfancy@D@std@@YAPEADPEAD@Z"
	leaq	128(%rsp), %rcx
	movq	%rax, %rdx
	movq	40(%rsp), %r8           # 8-byte Reload
	movq	48(%rsp), %r9           # 8-byte Reload
	callq	"??R<lambda_1>@?0??assign@?$basic_string@DU?$char_traits@D@std@@V?$allocator@D@2@@std@@QEAAAEAV23@QEBD_K@Z@QEBA?A?<auto>@@QEAD10@Z"
	movl	$16, %eax
	cmpq	96(%rsp), %rax
	ja	.LBB52_4
# %bb.3:
	movq	80(%rsp), %rcx
	movq	96(%rsp), %rax
	addq	$1, %rax
	movq	56(%rsp), %rdx          # 8-byte Reload
	movq	(%rdx), %rdx
	movq	%rax, %r8
	callq	"?deallocate@?$allocator@D@std@@QEAAXQEAD_K@Z"
	movq	72(%rsp), %rax
	movq	56(%rsp), %rcx          # 8-byte Reload
	movq	%rax, (%rcx)
	jmp	.LBB52_5
.LBB52_4:
	movq	56(%rsp), %rax          # 8-byte Reload
	movq	%rax, %rcx
	leaq	72(%rsp), %rdx
	callq	"??$_Construct_in_place@PEADAEBQEAD@std@@YAXAEAPEADAEBQEAD@Z"
.LBB52_5:
	movq	56(%rsp), %rax          # 8-byte Reload
	addq	$136, %rsp
	retq
	.seh_handlerdata
	.section	.text,"xr",discard,"??$_Reallocate_for@V<lambda_1>@?0??assign@?$basic_string@DU?$char_traits@D@std@@V?$allocator@D@2@@std@@QEAAAEAV34@QEBD_K@Z@PEBD@?$basic_string@DU?$char_traits@D@std@@V?$allocator@D@2@@std@@AEAAAEAV01@_KV<lambda_1>@?0??assign@01@QEAAAEAV01@QEBD0@Z@PEBD@Z"
	.seh_endproc
                                        # -- End function
	.def	 "??$_Unfancy@D@std@@YAPEADPEAD@Z";
	.scl	2;
	.type	32;
	.endef
	.section	.text,"xr",discard,"??$_Unfancy@D@std@@YAPEADPEAD@Z"
	.globl	"??$_Unfancy@D@std@@YAPEADPEAD@Z" # -- Begin function ??$_Unfancy@D@std@@YAPEADPEAD@Z
	.p2align	4, 0x90
"??$_Unfancy@D@std@@YAPEADPEAD@Z":      # @"??$_Unfancy@D@std@@YAPEADPEAD@Z"
.seh_proc "??$_Unfancy@D@std@@YAPEADPEAD@Z"
# %bb.0:
	pushq	%rax
	.seh_stackalloc 8
	.seh_endprologue
	movq	%rcx, (%rsp)
	movq	(%rsp), %rax
	popq	%rcx
	retq
	.seh_handlerdata
	.section	.text,"xr",discard,"??$_Unfancy@D@std@@YAPEADPEAD@Z"
	.seh_endproc
                                        # -- End function
	.def	 "?max_size@?$basic_string@DU?$char_traits@D@std@@V?$allocator@D@2@@std@@QEBA_KXZ";
	.scl	2;
	.type	32;
	.endef
	.section	.text,"xr",discard,"?max_size@?$basic_string@DU?$char_traits@D@std@@V?$allocator@D@2@@std@@QEBA_KXZ"
	.globl	"?max_size@?$basic_string@DU?$char_traits@D@std@@V?$allocator@D@2@@std@@QEBA_KXZ" # -- Begin function ?max_size@?$basic_string@DU?$char_traits@D@std@@V?$allocator@D@2@@std@@QEBA_KXZ
	.p2align	4, 0x90
"?max_size@?$basic_string@DU?$char_traits@D@std@@V?$allocator@D@2@@std@@QEBA_KXZ": # @"?max_size@?$basic_string@DU?$char_traits@D@std@@V?$allocator@D@2@@std@@QEBA_KXZ"
.seh_proc "?max_size@?$basic_string@DU?$char_traits@D@std@@V?$allocator@D@2@@std@@QEBA_KXZ"
# %bb.0:
	subq	$88, %rsp
	.seh_stackalloc 88
	.seh_endprologue
	movq	%rcx, 80(%rsp)
	movq	80(%rsp), %rcx
	callq	"?_Getal@?$basic_string@DU?$char_traits@D@std@@V?$allocator@D@2@@std@@AEBAAEBV?$allocator@D@2@XZ"
	movq	%rax, %rcx
	callq	"?max_size@?$_Default_allocator_traits@V?$allocator@D@std@@@std@@SA_KAEBV?$allocator@D@2@@Z"
	movq	%rax, 72(%rsp)
	movq	$16, 56(%rsp)
	leaq	72(%rsp), %rcx
	leaq	56(%rsp), %rdx
	callq	"??$_Max_value@_K@std@@YAAEB_KAEB_K0@Z"
	movq	(%rax), %rax
	movq	%rax, 64(%rsp)
	movq	64(%rsp), %rax
	subq	$1, %rax
	movq	%rax, 48(%rsp)
	callq	"?max@?$numeric_limits@_J@std@@SA_JXZ"
	movq	%rax, 40(%rsp)
	leaq	40(%rsp), %rcx
	leaq	48(%rsp), %rdx
	callq	"??$_Min_value@_K@std@@YAAEB_KAEB_K0@Z"
	movq	(%rax), %rax
	addq	$88, %rsp
	retq
	.seh_handlerdata
	.section	.text,"xr",discard,"?max_size@?$basic_string@DU?$char_traits@D@std@@V?$allocator@D@2@@std@@QEBA_KXZ"
	.seh_endproc
                                        # -- End function
	.def	 "?_Xlen_string@std@@YAXXZ";
	.scl	2;
	.type	32;
	.endef
	.section	.text,"xr",discard,"?_Xlen_string@std@@YAXXZ"
	.globl	"?_Xlen_string@std@@YAXXZ" # -- Begin function ?_Xlen_string@std@@YAXXZ
	.p2align	4, 0x90
"?_Xlen_string@std@@YAXXZ":             # @"?_Xlen_string@std@@YAXXZ"
.seh_proc "?_Xlen_string@std@@YAXXZ"
# %bb.0:
	subq	$40, %rsp
	.seh_stackalloc 40
	.seh_endprologue
	leaq	"??_C@_0BA@JFNIOLAK@string?5too?5long?$AA@"(%rip), %rcx
	callq	"?_Xlength_error@std@@YAXPEBD@Z"
	int3
	.seh_handlerdata
	.section	.text,"xr",discard,"?_Xlen_string@std@@YAXXZ"
	.seh_endproc
                                        # -- End function
	.def	 "?_Calculate_growth@?$basic_string@DU?$char_traits@D@std@@V?$allocator@D@2@@std@@AEBA_K_K@Z";
	.scl	2;
	.type	32;
	.endef
	.section	.text,"xr",discard,"?_Calculate_growth@?$basic_string@DU?$char_traits@D@std@@V?$allocator@D@2@@std@@AEBA_K_K@Z"
	.globl	"?_Calculate_growth@?$basic_string@DU?$char_traits@D@std@@V?$allocator@D@2@@std@@AEBA_K_K@Z" # -- Begin function ?_Calculate_growth@?$basic_string@DU?$char_traits@D@std@@V?$allocator@D@2@@std@@AEBA_K_K@Z
	.p2align	4, 0x90
"?_Calculate_growth@?$basic_string@DU?$char_traits@D@std@@V?$allocator@D@2@@std@@AEBA_K_K@Z": # @"?_Calculate_growth@?$basic_string@DU?$char_traits@D@std@@V?$allocator@D@2@@std@@AEBA_K_K@Z"
.seh_proc "?_Calculate_growth@?$basic_string@DU?$char_traits@D@std@@V?$allocator@D@2@@std@@AEBA_K_K@Z"
# %bb.0:
	subq	$56, %rsp
	.seh_stackalloc 56
	.seh_endprologue
	movq	%rdx, 48(%rsp)
	movq	%rcx, 40(%rsp)
	movq	40(%rsp), %rax
	movq	%rax, %rcx
	movq	%rax, 32(%rsp)          # 8-byte Spill
	callq	"?max_size@?$basic_string@DU?$char_traits@D@std@@V?$allocator@D@2@@std@@QEBA_KXZ"
	movq	32(%rsp), %rcx          # 8-byte Reload
	movq	24(%rcx), %rdx
	movq	48(%rsp), %rcx
	movq	%rax, %r8
	callq	"?_Calculate_growth@?$basic_string@DU?$char_traits@D@std@@V?$allocator@D@2@@std@@CA_K_K00@Z"
	nop
	addq	$56, %rsp
	retq
	.seh_handlerdata
	.section	.text,"xr",discard,"?_Calculate_growth@?$basic_string@DU?$char_traits@D@std@@V?$allocator@D@2@@std@@AEBA_K_K@Z"
	.seh_endproc
                                        # -- End function
	.def	 "?allocate@?$allocator@D@std@@QEAAPEAD_K@Z";
	.scl	2;
	.type	32;
	.endef
	.section	.text,"xr",discard,"?allocate@?$allocator@D@std@@QEAAPEAD_K@Z"
	.globl	"?allocate@?$allocator@D@std@@QEAAPEAD_K@Z" # -- Begin function ?allocate@?$allocator@D@std@@QEAAPEAD_K@Z
	.p2align	4, 0x90
"?allocate@?$allocator@D@std@@QEAAPEAD_K@Z": # @"?allocate@?$allocator@D@std@@QEAAPEAD_K@Z"
.seh_proc "?allocate@?$allocator@D@std@@QEAAPEAD_K@Z"
# %bb.0:
	subq	$56, %rsp
	.seh_stackalloc 56
	.seh_endprologue
	movq	%rdx, 48(%rsp)
	movq	%rcx, 40(%rsp)
	movq	48(%rsp), %rcx
	callq	"??$_Get_size_of_n@$00@std@@YA_K_K@Z"
	movq	%rax, %rcx
	callq	"??$_Allocate@$0BA@U_Default_allocate_traits@std@@$0A@@std@@YAPEAX_K@Z"
	nop
	addq	$56, %rsp
	retq
	.seh_handlerdata
	.section	.text,"xr",discard,"?allocate@?$allocator@D@std@@QEAAPEAD_K@Z"
	.seh_endproc
                                        # -- End function
	.def	 "??R<lambda_1>@?0??assign@?$basic_string@DU?$char_traits@D@std@@V?$allocator@D@2@@std@@QEAAAEAV23@QEBD_K@Z@QEBA?A?<auto>@@QEAD10@Z";
	.scl	2;
	.type	32;
	.endef
	.section	.text,"xr",discard,"??R<lambda_1>@?0??assign@?$basic_string@DU?$char_traits@D@std@@V?$allocator@D@2@@std@@QEAAAEAV23@QEBD_K@Z@QEBA?A?<auto>@@QEAD10@Z"
	.globl	"??R<lambda_1>@?0??assign@?$basic_string@DU?$char_traits@D@std@@V?$allocator@D@2@@std@@QEAAAEAV23@QEBD_K@Z@QEBA?A?<auto>@@QEAD10@Z" # -- Begin function ??R<lambda_1>@?0??assign@?$basic_string@DU?$char_traits@D@std@@V?$allocator@D@2@@std@@QEAAAEAV23@QEBD_K@Z@QEBA?A?<auto>@@QEAD10@Z
	.p2align	4, 0x90
"??R<lambda_1>@?0??assign@?$basic_string@DU?$char_traits@D@std@@V?$allocator@D@2@@std@@QEAAAEAV23@QEBD_K@Z@QEBA?A?<auto>@@QEAD10@Z": # @"??R<lambda_1>@?0??assign@?$basic_string@DU?$char_traits@D@std@@V?$allocator@D@2@@std@@QEAAAEAV23@QEBD_K@Z@QEBA?A?<auto>@@QEAD10@Z"
.seh_proc "??R<lambda_1>@?0??assign@?$basic_string@DU?$char_traits@D@std@@V?$allocator@D@2@@std@@QEAAAEAV23@QEBD_K@Z@QEBA?A?<auto>@@QEAD10@Z"
# %bb.0:
	subq	$88, %rsp
	.seh_stackalloc 88
	.seh_endprologue
	movq	%r9, 80(%rsp)
	movq	%r8, 72(%rsp)
	movq	%rdx, 64(%rsp)
	movq	%rcx, 56(%rsp)
	movq	72(%rsp), %r8
	movq	80(%rsp), %rdx
	movq	64(%rsp), %rcx
	callq	"?copy@?$_Narrow_char_traits@DH@std@@SAPEADQEADQEBD_K@Z"
	movb	$0, 55(%rsp)
	movq	64(%rsp), %rcx
	addq	72(%rsp), %rcx
	leaq	55(%rsp), %rdx
	movq	%rax, 40(%rsp)          # 8-byte Spill
	callq	"?assign@?$_Narrow_char_traits@DH@std@@SAXAEADAEBD@Z"
	nop
	addq	$88, %rsp
	retq
	.seh_handlerdata
	.section	.text,"xr",discard,"??R<lambda_1>@?0??assign@?$basic_string@DU?$char_traits@D@std@@V?$allocator@D@2@@std@@QEAAAEAV23@QEBD_K@Z@QEBA?A?<auto>@@QEAD10@Z"
	.seh_endproc
                                        # -- End function
	.def	 "??$_Construct_in_place@PEADAEBQEAD@std@@YAXAEAPEADAEBQEAD@Z";
	.scl	2;
	.type	32;
	.endef
	.section	.text,"xr",discard,"??$_Construct_in_place@PEADAEBQEAD@std@@YAXAEAPEADAEBQEAD@Z"
	.globl	"??$_Construct_in_place@PEADAEBQEAD@std@@YAXAEAPEADAEBQEAD@Z" # -- Begin function ??$_Construct_in_place@PEADAEBQEAD@std@@YAXAEAPEADAEBQEAD@Z
	.p2align	4, 0x90
"??$_Construct_in_place@PEADAEBQEAD@std@@YAXAEAPEADAEBQEAD@Z": # @"??$_Construct_in_place@PEADAEBQEAD@std@@YAXAEAPEADAEBQEAD@Z"
.seh_proc "??$_Construct_in_place@PEADAEBQEAD@std@@YAXAEAPEADAEBQEAD@Z"
# %bb.0:
	subq	$56, %rsp
	.seh_stackalloc 56
	.seh_endprologue
	movq	%rdx, 48(%rsp)
	movq	%rcx, 40(%rsp)
	movq	40(%rsp), %rcx
	callq	"??$addressof@PEAD@std@@YAPEAPEADAEAPEAD@Z"
	movq	48(%rsp), %rcx
	movq	%rax, 32(%rsp)          # 8-byte Spill
	callq	"??$forward@AEBQEAD@std@@YAAEBQEADAEBQEAD@Z"
	movq	(%rax), %rax
	movq	32(%rsp), %rcx          # 8-byte Reload
	movq	%rax, (%rcx)
	addq	$56, %rsp
	retq
	.seh_handlerdata
	.section	.text,"xr",discard,"??$_Construct_in_place@PEADAEBQEAD@std@@YAXAEAPEADAEBQEAD@Z"
	.seh_endproc
                                        # -- End function
	.def	 "?max_size@?$_Default_allocator_traits@V?$allocator@D@std@@@std@@SA_KAEBV?$allocator@D@2@@Z";
	.scl	2;
	.type	32;
	.endef
	.section	.text,"xr",discard,"?max_size@?$_Default_allocator_traits@V?$allocator@D@std@@@std@@SA_KAEBV?$allocator@D@2@@Z"
	.globl	"?max_size@?$_Default_allocator_traits@V?$allocator@D@std@@@std@@SA_KAEBV?$allocator@D@2@@Z" # -- Begin function ?max_size@?$_Default_allocator_traits@V?$allocator@D@std@@@std@@SA_KAEBV?$allocator@D@2@@Z
	.p2align	4, 0x90
"?max_size@?$_Default_allocator_traits@V?$allocator@D@std@@@std@@SA_KAEBV?$allocator@D@2@@Z": # @"?max_size@?$_Default_allocator_traits@V?$allocator@D@std@@@std@@SA_KAEBV?$allocator@D@2@@Z"
.seh_proc "?max_size@?$_Default_allocator_traits@V?$allocator@D@std@@@std@@SA_KAEBV?$allocator@D@2@@Z"
# %bb.0:
	pushq	%rax
	.seh_stackalloc 8
	.seh_endprologue
	movq	%rcx, (%rsp)
	movq	$-1, %rax
	popq	%rcx
	retq
	.seh_handlerdata
	.section	.text,"xr",discard,"?max_size@?$_Default_allocator_traits@V?$allocator@D@std@@@std@@SA_KAEBV?$allocator@D@2@@Z"
	.seh_endproc
                                        # -- End function
	.def	 "?_Getal@?$basic_string@DU?$char_traits@D@std@@V?$allocator@D@2@@std@@AEBAAEBV?$allocator@D@2@XZ";
	.scl	2;
	.type	32;
	.endef
	.section	.text,"xr",discard,"?_Getal@?$basic_string@DU?$char_traits@D@std@@V?$allocator@D@2@@std@@AEBAAEBV?$allocator@D@2@XZ"
	.globl	"?_Getal@?$basic_string@DU?$char_traits@D@std@@V?$allocator@D@2@@std@@AEBAAEBV?$allocator@D@2@XZ" # -- Begin function ?_Getal@?$basic_string@DU?$char_traits@D@std@@V?$allocator@D@2@@std@@AEBAAEBV?$allocator@D@2@XZ
	.p2align	4, 0x90
"?_Getal@?$basic_string@DU?$char_traits@D@std@@V?$allocator@D@2@@std@@AEBAAEBV?$allocator@D@2@XZ": # @"?_Getal@?$basic_string@DU?$char_traits@D@std@@V?$allocator@D@2@@std@@AEBAAEBV?$allocator@D@2@XZ"
.seh_proc "?_Getal@?$basic_string@DU?$char_traits@D@std@@V?$allocator@D@2@@std@@AEBAAEBV?$allocator@D@2@XZ"
# %bb.0:
	subq	$40, %rsp
	.seh_stackalloc 40
	.seh_endprologue
	movq	%rcx, 32(%rsp)
	movq	32(%rsp), %rcx
	callq	"?_Get_first@?$_Compressed_pair@V?$allocator@D@std@@V?$_String_val@U?$_Simple_types@D@std@@@2@$00@std@@QEBAAEBV?$allocator@D@2@XZ"
	nop
	addq	$40, %rsp
	retq
	.seh_handlerdata
	.section	.text,"xr",discard,"?_Getal@?$basic_string@DU?$char_traits@D@std@@V?$allocator@D@2@@std@@AEBAAEBV?$allocator@D@2@XZ"
	.seh_endproc
                                        # -- End function
	.def	 "??$_Max_value@_K@std@@YAAEB_KAEB_K0@Z";
	.scl	2;
	.type	32;
	.endef
	.section	.text,"xr",discard,"??$_Max_value@_K@std@@YAAEB_KAEB_K0@Z"
	.globl	"??$_Max_value@_K@std@@YAAEB_KAEB_K0@Z" # -- Begin function ??$_Max_value@_K@std@@YAAEB_KAEB_K0@Z
	.p2align	4, 0x90
"??$_Max_value@_K@std@@YAAEB_KAEB_K0@Z": # @"??$_Max_value@_K@std@@YAAEB_KAEB_K0@Z"
.seh_proc "??$_Max_value@_K@std@@YAAEB_KAEB_K0@Z"
# %bb.0:
	subq	$24, %rsp
	.seh_stackalloc 24
	.seh_endprologue
	movq	%rdx, 16(%rsp)
	movq	%rcx, 8(%rsp)
	movq	8(%rsp), %rax
	movq	(%rax), %rax
	movq	16(%rsp), %rcx
	cmpq	(%rcx), %rax
	jae	.LBB62_2
# %bb.1:
	movq	16(%rsp), %rax
	movq	%rax, (%rsp)            # 8-byte Spill
	jmp	.LBB62_3
.LBB62_2:
	movq	8(%rsp), %rax
	movq	%rax, (%rsp)            # 8-byte Spill
.LBB62_3:
	movq	(%rsp), %rax            # 8-byte Reload
	addq	$24, %rsp
	retq
	.seh_handlerdata
	.section	.text,"xr",discard,"??$_Max_value@_K@std@@YAAEB_KAEB_K0@Z"
	.seh_endproc
                                        # -- End function
	.def	 "??$_Min_value@_K@std@@YAAEB_KAEB_K0@Z";
	.scl	2;
	.type	32;
	.endef
	.section	.text,"xr",discard,"??$_Min_value@_K@std@@YAAEB_KAEB_K0@Z"
	.globl	"??$_Min_value@_K@std@@YAAEB_KAEB_K0@Z" # -- Begin function ??$_Min_value@_K@std@@YAAEB_KAEB_K0@Z
	.p2align	4, 0x90
"??$_Min_value@_K@std@@YAAEB_KAEB_K0@Z": # @"??$_Min_value@_K@std@@YAAEB_KAEB_K0@Z"
.seh_proc "??$_Min_value@_K@std@@YAAEB_KAEB_K0@Z"
# %bb.0:
	subq	$24, %rsp
	.seh_stackalloc 24
	.seh_endprologue
	movq	%rdx, 16(%rsp)
	movq	%rcx, 8(%rsp)
	movq	16(%rsp), %rax
	movq	(%rax), %rax
	movq	8(%rsp), %rcx
	cmpq	(%rcx), %rax
	jae	.LBB63_2
# %bb.1:
	movq	16(%rsp), %rax
	movq	%rax, (%rsp)            # 8-byte Spill
	jmp	.LBB63_3
.LBB63_2:
	movq	8(%rsp), %rax
	movq	%rax, (%rsp)            # 8-byte Spill
.LBB63_3:
	movq	(%rsp), %rax            # 8-byte Reload
	addq	$24, %rsp
	retq
	.seh_handlerdata
	.section	.text,"xr",discard,"??$_Min_value@_K@std@@YAAEB_KAEB_K0@Z"
	.seh_endproc
                                        # -- End function
	.def	 "?max@?$numeric_limits@_J@std@@SA_JXZ";
	.scl	2;
	.type	32;
	.endef
	.section	.text,"xr",discard,"?max@?$numeric_limits@_J@std@@SA_JXZ"
	.globl	"?max@?$numeric_limits@_J@std@@SA_JXZ" # -- Begin function ?max@?$numeric_limits@_J@std@@SA_JXZ
	.p2align	4, 0x90
"?max@?$numeric_limits@_J@std@@SA_JXZ": # @"?max@?$numeric_limits@_J@std@@SA_JXZ"
# %bb.0:
	movabsq	$9223372036854775807, %rax # imm = 0x7FFFFFFFFFFFFFFF
	retq
                                        # -- End function
	.def	 "?_Get_first@?$_Compressed_pair@V?$allocator@D@std@@V?$_String_val@U?$_Simple_types@D@std@@@2@$00@std@@QEBAAEBV?$allocator@D@2@XZ";
	.scl	2;
	.type	32;
	.endef
	.section	.text,"xr",discard,"?_Get_first@?$_Compressed_pair@V?$allocator@D@std@@V?$_String_val@U?$_Simple_types@D@std@@@2@$00@std@@QEBAAEBV?$allocator@D@2@XZ"
	.globl	"?_Get_first@?$_Compressed_pair@V?$allocator@D@std@@V?$_String_val@U?$_Simple_types@D@std@@@2@$00@std@@QEBAAEBV?$allocator@D@2@XZ" # -- Begin function ?_Get_first@?$_Compressed_pair@V?$allocator@D@std@@V?$_String_val@U?$_Simple_types@D@std@@@2@$00@std@@QEBAAEBV?$allocator@D@2@XZ
	.p2align	4, 0x90
"?_Get_first@?$_Compressed_pair@V?$allocator@D@std@@V?$_String_val@U?$_Simple_types@D@std@@@2@$00@std@@QEBAAEBV?$allocator@D@2@XZ": # @"?_Get_first@?$_Compressed_pair@V?$allocator@D@std@@V?$_String_val@U?$_Simple_types@D@std@@@2@$00@std@@QEBAAEBV?$allocator@D@2@XZ"
.seh_proc "?_Get_first@?$_Compressed_pair@V?$allocator@D@std@@V?$_String_val@U?$_Simple_types@D@std@@@2@$00@std@@QEBAAEBV?$allocator@D@2@XZ"
# %bb.0:
	pushq	%rax
	.seh_stackalloc 8
	.seh_endprologue
	movq	%rcx, (%rsp)
	movq	(%rsp), %rax
	popq	%rcx
	retq
	.seh_handlerdata
	.section	.text,"xr",discard,"?_Get_first@?$_Compressed_pair@V?$allocator@D@std@@V?$_String_val@U?$_Simple_types@D@std@@@2@$00@std@@QEBAAEBV?$allocator@D@2@XZ"
	.seh_endproc
                                        # -- End function
	.def	 "?_Calculate_growth@?$basic_string@DU?$char_traits@D@std@@V?$allocator@D@2@@std@@CA_K_K00@Z";
	.scl	2;
	.type	32;
	.endef
	.section	.text,"xr",discard,"?_Calculate_growth@?$basic_string@DU?$char_traits@D@std@@V?$allocator@D@2@@std@@CA_K_K00@Z"
	.globl	"?_Calculate_growth@?$basic_string@DU?$char_traits@D@std@@V?$allocator@D@2@@std@@CA_K_K00@Z" # -- Begin function ?_Calculate_growth@?$basic_string@DU?$char_traits@D@std@@V?$allocator@D@2@@std@@CA_K_K00@Z
	.p2align	4, 0x90
"?_Calculate_growth@?$basic_string@DU?$char_traits@D@std@@V?$allocator@D@2@@std@@CA_K_K00@Z": # @"?_Calculate_growth@?$basic_string@DU?$char_traits@D@std@@V?$allocator@D@2@@std@@CA_K_K00@Z"
.seh_proc "?_Calculate_growth@?$basic_string@DU?$char_traits@D@std@@V?$allocator@D@2@@std@@CA_K_K00@Z"
# %bb.0:
	subq	$88, %rsp
	.seh_stackalloc 88
	.seh_endprologue
	movq	%r8, 72(%rsp)
	movq	%rdx, 64(%rsp)
	movq	%rcx, 56(%rsp)
	movq	56(%rsp), %rax
	orq	$15, %rax
	movq	%rax, 48(%rsp)
	movq	48(%rsp), %rax
	cmpq	72(%rsp), %rax
	jbe	.LBB66_2
# %bb.1:
	movq	72(%rsp), %rax
	movq	%rax, 80(%rsp)
	jmp	.LBB66_5
.LBB66_2:
	movq	64(%rsp), %rax
	movq	72(%rsp), %rcx
	movq	64(%rsp), %rdx
	shrq	$1, %rdx
	subq	%rdx, %rcx
	cmpq	%rcx, %rax
	jbe	.LBB66_4
# %bb.3:
	movq	72(%rsp), %rax
	movq	%rax, 80(%rsp)
	jmp	.LBB66_5
.LBB66_4:
	movq	64(%rsp), %rax
	movq	64(%rsp), %rcx
	shrq	$1, %rcx
	addq	%rcx, %rax
	movq	%rax, 40(%rsp)
	leaq	48(%rsp), %rcx
	leaq	40(%rsp), %rdx
	callq	"??$_Max_value@_K@std@@YAAEB_KAEB_K0@Z"
	movq	(%rax), %rax
	movq	%rax, 80(%rsp)
.LBB66_5:
	movq	80(%rsp), %rax
	addq	$88, %rsp
	retq
	.seh_handlerdata
	.section	.text,"xr",discard,"?_Calculate_growth@?$basic_string@DU?$char_traits@D@std@@V?$allocator@D@2@@std@@CA_K_K00@Z"
	.seh_endproc
                                        # -- End function
	.def	 "??$_Allocate@$0BA@U_Default_allocate_traits@std@@$0A@@std@@YAPEAX_K@Z";
	.scl	2;
	.type	32;
	.endef
	.section	.text,"xr",discard,"??$_Allocate@$0BA@U_Default_allocate_traits@std@@$0A@@std@@YAPEAX_K@Z"
	.globl	"??$_Allocate@$0BA@U_Default_allocate_traits@std@@$0A@@std@@YAPEAX_K@Z" # -- Begin function ??$_Allocate@$0BA@U_Default_allocate_traits@std@@$0A@@std@@YAPEAX_K@Z
	.p2align	4, 0x90
"??$_Allocate@$0BA@U_Default_allocate_traits@std@@$0A@@std@@YAPEAX_K@Z": # @"??$_Allocate@$0BA@U_Default_allocate_traits@std@@$0A@@std@@YAPEAX_K@Z"
.seh_proc "??$_Allocate@$0BA@U_Default_allocate_traits@std@@$0A@@std@@YAPEAX_K@Z"
# %bb.0:
	subq	$56, %rsp
	.seh_stackalloc 56
	.seh_endprologue
	movq	%rcx, 40(%rsp)
	cmpq	$4096, 40(%rsp)         # imm = 0x1000
	jb	.LBB67_2
# %bb.1:
	movq	40(%rsp), %rcx
	callq	"??$_Allocate_manually_vector_aligned@U_Default_allocate_traits@std@@@std@@YAPEAX_K@Z"
	movq	%rax, 48(%rsp)
	jmp	.LBB67_5
.LBB67_2:
	cmpq	$0, 40(%rsp)
	je	.LBB67_4
# %bb.3:
	movq	40(%rsp), %rcx
	callq	"?_Allocate@_Default_allocate_traits@std@@SAPEAX_K@Z"
	movq	%rax, 48(%rsp)
	jmp	.LBB67_5
.LBB67_4:
	movq	$0, 48(%rsp)
.LBB67_5:
	movq	48(%rsp), %rax
	addq	$56, %rsp
	retq
	.seh_handlerdata
	.section	.text,"xr",discard,"??$_Allocate@$0BA@U_Default_allocate_traits@std@@$0A@@std@@YAPEAX_K@Z"
	.seh_endproc
                                        # -- End function
	.def	 "??$_Get_size_of_n@$00@std@@YA_K_K@Z";
	.scl	2;
	.type	32;
	.endef
	.section	.text,"xr",discard,"??$_Get_size_of_n@$00@std@@YA_K_K@Z"
	.globl	"??$_Get_size_of_n@$00@std@@YA_K_K@Z" # -- Begin function ??$_Get_size_of_n@$00@std@@YA_K_K@Z
	.p2align	4, 0x90
"??$_Get_size_of_n@$00@std@@YA_K_K@Z":  # @"??$_Get_size_of_n@$00@std@@YA_K_K@Z"
.seh_proc "??$_Get_size_of_n@$00@std@@YA_K_K@Z"
# %bb.0:
	subq	$16, %rsp
	.seh_stackalloc 16
	.seh_endprologue
	movq	%rcx, 8(%rsp)
	movb	$0, 7(%rsp)
	movq	8(%rsp), %rax
	shlq	$0, %rax
	addq	$16, %rsp
	retq
	.seh_handlerdata
	.section	.text,"xr",discard,"??$_Get_size_of_n@$00@std@@YA_K_K@Z"
	.seh_endproc
                                        # -- End function
	.def	 "??$_Allocate_manually_vector_aligned@U_Default_allocate_traits@std@@@std@@YAPEAX_K@Z";
	.scl	2;
	.type	32;
	.endef
	.section	.text,"xr",discard,"??$_Allocate_manually_vector_aligned@U_Default_allocate_traits@std@@@std@@YAPEAX_K@Z"
	.globl	"??$_Allocate_manually_vector_aligned@U_Default_allocate_traits@std@@@std@@YAPEAX_K@Z" # -- Begin function ??$_Allocate_manually_vector_aligned@U_Default_allocate_traits@std@@@std@@YAPEAX_K@Z
	.p2align	4, 0x90
"??$_Allocate_manually_vector_aligned@U_Default_allocate_traits@std@@@std@@YAPEAX_K@Z": # @"??$_Allocate_manually_vector_aligned@U_Default_allocate_traits@std@@@std@@YAPEAX_K@Z"
.seh_proc "??$_Allocate_manually_vector_aligned@U_Default_allocate_traits@std@@@std@@YAPEAX_K@Z"
# %bb.0:
	subq	$72, %rsp
	.seh_stackalloc 72
	.seh_endprologue
	movq	%rcx, 64(%rsp)
	movq	64(%rsp), %rax
	addq	$39, %rax
	movq	%rax, 56(%rsp)
	movq	56(%rsp), %rax
	cmpq	64(%rsp), %rax
	ja	.LBB69_2
# %bb.1:
	callq	"?_Throw_bad_array_new_length@std@@YAXXZ"
.LBB69_2:
	movq	56(%rsp), %rcx
	callq	"?_Allocate@_Default_allocate_traits@std@@SAPEAX_K@Z"
	movq	%rax, 48(%rsp)
# %bb.3:
	cmpq	$0, 48(%rsp)
	je	.LBB69_5
# %bb.4:
	jmp	.LBB69_7
.LBB69_5:
	jmp	.LBB69_6
.LBB69_6:
	callq	_invalid_parameter_noinfo_noreturn
.LBB69_7:
	jmp	.LBB69_8
.LBB69_8:
	movq	48(%rsp), %rax
	addq	$39, %rax
	andq	$-32, %rax
	movq	%rax, 40(%rsp)
	movq	48(%rsp), %rax
	movq	40(%rsp), %rcx
	movq	%rax, -8(%rcx)
	movq	40(%rsp), %rax
	addq	$72, %rsp
	retq
	.seh_handlerdata
	.section	.text,"xr",discard,"??$_Allocate_manually_vector_aligned@U_Default_allocate_traits@std@@@std@@YAPEAX_K@Z"
	.seh_endproc
                                        # -- End function
	.def	 "?_Allocate@_Default_allocate_traits@std@@SAPEAX_K@Z";
	.scl	2;
	.type	32;
	.endef
	.section	.text,"xr",discard,"?_Allocate@_Default_allocate_traits@std@@SAPEAX_K@Z"
	.globl	"?_Allocate@_Default_allocate_traits@std@@SAPEAX_K@Z" # -- Begin function ?_Allocate@_Default_allocate_traits@std@@SAPEAX_K@Z
	.p2align	4, 0x90
"?_Allocate@_Default_allocate_traits@std@@SAPEAX_K@Z": # @"?_Allocate@_Default_allocate_traits@std@@SAPEAX_K@Z"
.seh_proc "?_Allocate@_Default_allocate_traits@std@@SAPEAX_K@Z"
# %bb.0:
	subq	$40, %rsp
	.seh_stackalloc 40
	.seh_endprologue
	movq	%rcx, 32(%rsp)
	movq	32(%rsp), %rcx
	callq	"??2@YAPEAX_K@Z"
	nop
	addq	$40, %rsp
	retq
	.seh_handlerdata
	.section	.text,"xr",discard,"?_Allocate@_Default_allocate_traits@std@@SAPEAX_K@Z"
	.seh_endproc
                                        # -- End function
	.def	 "?_Throw_bad_array_new_length@std@@YAXXZ";
	.scl	2;
	.type	32;
	.endef
	.section	.text,"xr",discard,"?_Throw_bad_array_new_length@std@@YAXXZ"
	.globl	"?_Throw_bad_array_new_length@std@@YAXXZ" # -- Begin function ?_Throw_bad_array_new_length@std@@YAXXZ
	.p2align	4, 0x90
"?_Throw_bad_array_new_length@std@@YAXXZ": # @"?_Throw_bad_array_new_length@std@@YAXXZ"
.seh_proc "?_Throw_bad_array_new_length@std@@YAXXZ"
# %bb.0:
	subq	$72, %rsp
	.seh_stackalloc 72
	.seh_endprologue
	leaq	48(%rsp), %rcx
	callq	"??0bad_array_new_length@std@@QEAA@XZ"
	leaq	48(%rsp), %rcx
	leaq	"_TI3?AVbad_array_new_length@std@@"(%rip), %rdx
	movq	%rax, 40(%rsp)          # 8-byte Spill
	callq	_CxxThrowException
	int3
	.seh_handlerdata
	.section	.text,"xr",discard,"?_Throw_bad_array_new_length@std@@YAXXZ"
	.seh_endproc
                                        # -- End function
	.def	 "??0bad_array_new_length@std@@QEAA@XZ";
	.scl	2;
	.type	32;
	.endef
	.section	.text,"xr",discard,"??0bad_array_new_length@std@@QEAA@XZ"
	.globl	"??0bad_array_new_length@std@@QEAA@XZ" # -- Begin function ??0bad_array_new_length@std@@QEAA@XZ
	.p2align	4, 0x90
"??0bad_array_new_length@std@@QEAA@XZ": # @"??0bad_array_new_length@std@@QEAA@XZ"
.seh_proc "??0bad_array_new_length@std@@QEAA@XZ"
# %bb.0:
	subq	$56, %rsp
	.seh_stackalloc 56
	.seh_endprologue
	movq	%rcx, 48(%rsp)
	movq	48(%rsp), %rax
	movq	%rax, %rcx
	leaq	"??_C@_0BF@KINCDENJ@bad?5array?5new?5length?$AA@"(%rip), %rdx
	movq	%rax, 40(%rsp)          # 8-byte Spill
	callq	"??0bad_alloc@std@@AEAA@QEBD@Z"
	leaq	"??_7bad_array_new_length@std@@6B@"(%rip), %rcx
	movq	40(%rsp), %rdx          # 8-byte Reload
	movq	%rcx, (%rdx)
	movq	%rax, 32(%rsp)          # 8-byte Spill
	movq	%rdx, %rax
	addq	$56, %rsp
	retq
	.seh_handlerdata
	.section	.text,"xr",discard,"??0bad_array_new_length@std@@QEAA@XZ"
	.seh_endproc
                                        # -- End function
	.def	 "??0bad_array_new_length@std@@QEAA@AEBV01@@Z";
	.scl	2;
	.type	32;
	.endef
	.section	.text,"xr",discard,"??0bad_array_new_length@std@@QEAA@AEBV01@@Z"
	.globl	"??0bad_array_new_length@std@@QEAA@AEBV01@@Z" # -- Begin function ??0bad_array_new_length@std@@QEAA@AEBV01@@Z
	.p2align	4, 0x90
"??0bad_array_new_length@std@@QEAA@AEBV01@@Z": # @"??0bad_array_new_length@std@@QEAA@AEBV01@@Z"
.seh_proc "??0bad_array_new_length@std@@QEAA@AEBV01@@Z"
# %bb.0:
	subq	$72, %rsp
	.seh_stackalloc 72
	.seh_endprologue
	movq	%rdx, 64(%rsp)
	movq	%rcx, 56(%rsp)
	movq	56(%rsp), %rax
	movq	%rax, %rcx
	movq	64(%rsp), %rdx
	movq	%rax, 48(%rsp)          # 8-byte Spill
	callq	"??0bad_alloc@std@@QEAA@AEBV01@@Z"
	leaq	"??_7bad_array_new_length@std@@6B@"(%rip), %rcx
	movq	48(%rsp), %rdx          # 8-byte Reload
	movq	%rcx, (%rdx)
	movq	%rax, 40(%rsp)          # 8-byte Spill
	movq	%rdx, %rax
	addq	$72, %rsp
	retq
	.seh_handlerdata
	.section	.text,"xr",discard,"??0bad_array_new_length@std@@QEAA@AEBV01@@Z"
	.seh_endproc
                                        # -- End function
	.def	 "??0bad_alloc@std@@QEAA@AEBV01@@Z";
	.scl	2;
	.type	32;
	.endef
	.section	.text,"xr",discard,"??0bad_alloc@std@@QEAA@AEBV01@@Z"
	.globl	"??0bad_alloc@std@@QEAA@AEBV01@@Z" # -- Begin function ??0bad_alloc@std@@QEAA@AEBV01@@Z
	.p2align	4, 0x90
"??0bad_alloc@std@@QEAA@AEBV01@@Z":     # @"??0bad_alloc@std@@QEAA@AEBV01@@Z"
.seh_proc "??0bad_alloc@std@@QEAA@AEBV01@@Z"
# %bb.0:
	subq	$72, %rsp
	.seh_stackalloc 72
	.seh_endprologue
	movq	%rdx, 64(%rsp)
	movq	%rcx, 56(%rsp)
	movq	56(%rsp), %rax
	movq	%rax, %rcx
	movq	64(%rsp), %rdx
	movq	%rax, 48(%rsp)          # 8-byte Spill
	callq	"??0exception@std@@QEAA@AEBV01@@Z"
	leaq	"??_7bad_alloc@std@@6B@"(%rip), %rcx
	movq	48(%rsp), %rdx          # 8-byte Reload
	movq	%rcx, (%rdx)
	movq	%rax, 40(%rsp)          # 8-byte Spill
	movq	%rdx, %rax
	addq	$72, %rsp
	retq
	.seh_handlerdata
	.section	.text,"xr",discard,"??0bad_alloc@std@@QEAA@AEBV01@@Z"
	.seh_endproc
                                        # -- End function
	.def	 "??0exception@std@@QEAA@AEBV01@@Z";
	.scl	2;
	.type	32;
	.endef
	.section	.text,"xr",discard,"??0exception@std@@QEAA@AEBV01@@Z"
	.globl	"??0exception@std@@QEAA@AEBV01@@Z" # -- Begin function ??0exception@std@@QEAA@AEBV01@@Z
	.p2align	4, 0x90
"??0exception@std@@QEAA@AEBV01@@Z":     # @"??0exception@std@@QEAA@AEBV01@@Z"
.Lfunc_begin3:
.seh_proc "??0exception@std@@QEAA@AEBV01@@Z"
	.seh_handler __CxxFrameHandler3, @unwind, @except
# %bb.0:
	pushq	%rbp
	.seh_pushreg %rbp
	subq	$80, %rsp
	.seh_stackalloc 80
	leaq	80(%rsp), %rbp
	.seh_setframe %rbp, 80
	.seh_endprologue
	movq	$-2, -8(%rbp)
	movq	%rdx, -16(%rbp)
	movq	%rcx, -24(%rbp)
	movq	-24(%rbp), %rax
	leaq	"??_7exception@std@@6B@"(%rip), %rcx
	movq	%rcx, (%rax)
	movq	%rax, %rcx
	addq	$8, %rcx
	xorps	%xmm0, %xmm0
	movups	%xmm0, 8(%rax)
	movq	-16(%rbp), %rdx
	addq	$8, %rdx
.Ltmp6:
	movq	%rcx, -32(%rbp)         # 8-byte Spill
	movq	%rdx, %rcx
	movq	-32(%rbp), %rdx         # 8-byte Reload
	movq	%rax, -40(%rbp)         # 8-byte Spill
	callq	__std_exception_copy
.Ltmp7:
	jmp	.LBB75_1
.LBB75_1:
	movq	-40(%rbp), %rax         # 8-byte Reload
	addq	$80, %rsp
	popq	%rbp
	retq
	.seh_handlerdata
	.long	("$cppxdata$??0exception@std@@QEAA@AEBV01@@Z")@IMGREL
	.section	.text,"xr",discard,"??0exception@std@@QEAA@AEBV01@@Z"
	.seh_endproc
	.def	 "?dtor$2@?0???0exception@std@@QEAA@AEBV01@@Z@4HA";
	.scl	3;
	.type	32;
	.endef
	.p2align	4, 0x90
"?dtor$2@?0???0exception@std@@QEAA@AEBV01@@Z@4HA":
.seh_proc "?dtor$2@?0???0exception@std@@QEAA@AEBV01@@Z@4HA"
.LBB75_2:
	movq	%rdx, 16(%rsp)
	pushq	%rbp
	.seh_pushreg %rbp
	subq	$32, %rsp
	.seh_stackalloc 32
	leaq	80(%rdx), %rbp
	.seh_endprologue
	callq	__std_terminate
	int3
.Lfunc_end3:
	.seh_handlerdata
	.section	.text,"xr",discard,"??0exception@std@@QEAA@AEBV01@@Z"
	.seh_endproc
	.section	.xdata,"dr",associative,"??0exception@std@@QEAA@AEBV01@@Z"
	.p2align	2
"$cppxdata$??0exception@std@@QEAA@AEBV01@@Z":
	.long	429065506               # MagicNumber
	.long	1                       # MaxState
	.long	("$stateUnwindMap$??0exception@std@@QEAA@AEBV01@@Z")@IMGREL # UnwindMap
	.long	0                       # NumTryBlocks
	.long	0                       # TryBlockMap
	.long	3                       # IPMapEntries
	.long	("$ip2state$??0exception@std@@QEAA@AEBV01@@Z")@IMGREL # IPToStateXData
	.long	72                      # UnwindHelp
	.long	0                       # ESTypeList
	.long	1                       # EHFlags
"$stateUnwindMap$??0exception@std@@QEAA@AEBV01@@Z":
	.long	-1                      # ToState
	.long	"?dtor$2@?0???0exception@std@@QEAA@AEBV01@@Z@4HA"@IMGREL # Action
"$ip2state$??0exception@std@@QEAA@AEBV01@@Z":
	.long	.Lfunc_begin3@IMGREL    # IP
	.long	-1                      # ToState
	.long	.Ltmp6@IMGREL+1         # IP
	.long	0                       # ToState
	.long	.Ltmp7@IMGREL+1         # IP
	.long	-1                      # ToState
	.section	.text,"xr",discard,"??0exception@std@@QEAA@AEBV01@@Z"
                                        # -- End function
	.def	 "??1bad_array_new_length@std@@UEAA@XZ";
	.scl	2;
	.type	32;
	.endef
	.section	.text,"xr",discard,"??1bad_array_new_length@std@@UEAA@XZ"
	.globl	"??1bad_array_new_length@std@@UEAA@XZ" # -- Begin function ??1bad_array_new_length@std@@UEAA@XZ
	.p2align	4, 0x90
"??1bad_array_new_length@std@@UEAA@XZ": # @"??1bad_array_new_length@std@@UEAA@XZ"
.seh_proc "??1bad_array_new_length@std@@UEAA@XZ"
# %bb.0:
	subq	$40, %rsp
	.seh_stackalloc 40
	.seh_endprologue
	movq	%rcx, 32(%rsp)
	movq	32(%rsp), %rax
	movq	%rax, %rcx
	callq	"??1bad_alloc@std@@UEAA@XZ"
	nop
	addq	$40, %rsp
	retq
	.seh_handlerdata
	.section	.text,"xr",discard,"??1bad_array_new_length@std@@UEAA@XZ"
	.seh_endproc
                                        # -- End function
	.def	 "??0bad_alloc@std@@AEAA@QEBD@Z";
	.scl	2;
	.type	32;
	.endef
	.section	.text,"xr",discard,"??0bad_alloc@std@@AEAA@QEBD@Z"
	.globl	"??0bad_alloc@std@@AEAA@QEBD@Z" # -- Begin function ??0bad_alloc@std@@AEAA@QEBD@Z
	.p2align	4, 0x90
"??0bad_alloc@std@@AEAA@QEBD@Z":        # @"??0bad_alloc@std@@AEAA@QEBD@Z"
.seh_proc "??0bad_alloc@std@@AEAA@QEBD@Z"
# %bb.0:
	subq	$72, %rsp
	.seh_stackalloc 72
	.seh_endprologue
	movq	%rdx, 64(%rsp)
	movq	%rcx, 56(%rsp)
	movq	56(%rsp), %rax
	movq	%rax, %rcx
	movq	64(%rsp), %rdx
	movl	$1, %r8d
	movq	%rax, 48(%rsp)          # 8-byte Spill
	callq	"??0exception@std@@QEAA@QEBDH@Z"
	leaq	"??_7bad_alloc@std@@6B@"(%rip), %rcx
	movq	48(%rsp), %rdx          # 8-byte Reload
	movq	%rcx, (%rdx)
	movq	%rax, 40(%rsp)          # 8-byte Spill
	movq	%rdx, %rax
	addq	$72, %rsp
	retq
	.seh_handlerdata
	.section	.text,"xr",discard,"??0bad_alloc@std@@AEAA@QEBD@Z"
	.seh_endproc
                                        # -- End function
	.def	 "??_Gbad_array_new_length@std@@UEAAPEAXI@Z";
	.scl	2;
	.type	32;
	.endef
	.section	.text,"xr",discard,"??_Gbad_array_new_length@std@@UEAAPEAXI@Z"
	.globl	"??_Gbad_array_new_length@std@@UEAAPEAXI@Z" # -- Begin function ??_Gbad_array_new_length@std@@UEAAPEAXI@Z
	.p2align	4, 0x90
"??_Gbad_array_new_length@std@@UEAAPEAXI@Z": # @"??_Gbad_array_new_length@std@@UEAAPEAXI@Z"
.seh_proc "??_Gbad_array_new_length@std@@UEAAPEAXI@Z"
# %bb.0:
	subq	$72, %rsp
	.seh_stackalloc 72
	.seh_endprologue
	movl	%edx, 60(%rsp)
	movq	%rcx, 48(%rsp)
	movq	48(%rsp), %rax
	movq	%rax, %rcx
	movq	%rcx, 64(%rsp)
	movl	60(%rsp), %edx
	movq	%rax, %rcx
	movq	%rax, 40(%rsp)          # 8-byte Spill
	movl	%edx, 36(%rsp)          # 4-byte Spill
	callq	"??1bad_array_new_length@std@@UEAA@XZ"
	movl	36(%rsp), %edx          # 4-byte Reload
	cmpl	$0, %edx
	je	.LBB78_2
# %bb.1:
	movq	40(%rsp), %rax          # 8-byte Reload
	movq	%rax, %rcx
	callq	"??3@YAXPEAX@Z"
.LBB78_2:
	movq	64(%rsp), %rax
	addq	$72, %rsp
	retq
	.seh_handlerdata
	.section	.text,"xr",discard,"??_Gbad_array_new_length@std@@UEAAPEAXI@Z"
	.seh_endproc
                                        # -- End function
	.def	 "?what@exception@std@@UEBAPEBDXZ";
	.scl	2;
	.type	32;
	.endef
	.section	.text,"xr",discard,"?what@exception@std@@UEBAPEBDXZ"
	.globl	"?what@exception@std@@UEBAPEBDXZ" # -- Begin function ?what@exception@std@@UEBAPEBDXZ
	.p2align	4, 0x90
"?what@exception@std@@UEBAPEBDXZ":      # @"?what@exception@std@@UEBAPEBDXZ"
.seh_proc "?what@exception@std@@UEBAPEBDXZ"
# %bb.0:
	subq	$24, %rsp
	.seh_stackalloc 24
	.seh_endprologue
	movq	%rcx, 16(%rsp)
	movq	16(%rsp), %rax
	cmpq	$0, 8(%rax)
	movq	%rax, 8(%rsp)           # 8-byte Spill
	je	.LBB79_2
# %bb.1:
	movq	8(%rsp), %rax           # 8-byte Reload
	movq	8(%rax), %rcx
	movq	%rcx, (%rsp)            # 8-byte Spill
	jmp	.LBB79_3
.LBB79_2:
	leaq	"??_C@_0BC@EOODALEL@Unknown?5exception?$AA@"(%rip), %rax
	movq	%rax, (%rsp)            # 8-byte Spill
	jmp	.LBB79_3
.LBB79_3:
	movq	(%rsp), %rax            # 8-byte Reload
	addq	$24, %rsp
	retq
	.seh_handlerdata
	.section	.text,"xr",discard,"?what@exception@std@@UEBAPEBDXZ"
	.seh_endproc
                                        # -- End function
	.def	 "??0exception@std@@QEAA@QEBDH@Z";
	.scl	2;
	.type	32;
	.endef
	.section	.text,"xr",discard,"??0exception@std@@QEAA@QEBDH@Z"
	.globl	"??0exception@std@@QEAA@QEBDH@Z" # -- Begin function ??0exception@std@@QEAA@QEBDH@Z
	.p2align	4, 0x90
"??0exception@std@@QEAA@QEBDH@Z":       # @"??0exception@std@@QEAA@QEBDH@Z"
.seh_proc "??0exception@std@@QEAA@QEBDH@Z"
# %bb.0:
	subq	$72, %rsp
	.seh_stackalloc 72
	.seh_endprologue
	xorl	%eax, %eax
	leaq	"??_7exception@std@@6B@"(%rip), %r9
	movl	%r8d, 68(%rsp)
	movq	%rdx, 56(%rsp)
	movq	%rcx, 48(%rsp)
	movq	48(%rsp), %rcx
	movq	%r9, (%rcx)
	movq	%rcx, %rdx
	addq	$8, %rdx
	movq	%rcx, 40(%rsp)          # 8-byte Spill
	movq	%rdx, %rcx
	movl	%eax, %edx
	movl	$16, %r8d
	callq	memset
	movq	56(%rsp), %rcx
	movq	40(%rsp), %r8           # 8-byte Reload
	movq	%rcx, 8(%r8)
	movq	%r8, %rax
	addq	$72, %rsp
	retq
	.seh_handlerdata
	.section	.text,"xr",discard,"??0exception@std@@QEAA@QEBDH@Z"
	.seh_endproc
                                        # -- End function
	.def	 "??_Gbad_alloc@std@@UEAAPEAXI@Z";
	.scl	2;
	.type	32;
	.endef
	.section	.text,"xr",discard,"??_Gbad_alloc@std@@UEAAPEAXI@Z"
	.globl	"??_Gbad_alloc@std@@UEAAPEAXI@Z" # -- Begin function ??_Gbad_alloc@std@@UEAAPEAXI@Z
	.p2align	4, 0x90
"??_Gbad_alloc@std@@UEAAPEAXI@Z":       # @"??_Gbad_alloc@std@@UEAAPEAXI@Z"
.seh_proc "??_Gbad_alloc@std@@UEAAPEAXI@Z"
# %bb.0:
	subq	$72, %rsp
	.seh_stackalloc 72
	.seh_endprologue
	movl	%edx, 60(%rsp)
	movq	%rcx, 48(%rsp)
	movq	48(%rsp), %rax
	movq	%rax, %rcx
	movq	%rcx, 64(%rsp)
	movl	60(%rsp), %edx
	movq	%rax, %rcx
	movq	%rax, 40(%rsp)          # 8-byte Spill
	movl	%edx, 36(%rsp)          # 4-byte Spill
	callq	"??1bad_alloc@std@@UEAA@XZ"
	movl	36(%rsp), %edx          # 4-byte Reload
	cmpl	$0, %edx
	je	.LBB81_2
# %bb.1:
	movq	40(%rsp), %rax          # 8-byte Reload
	movq	%rax, %rcx
	callq	"??3@YAXPEAX@Z"
.LBB81_2:
	movq	64(%rsp), %rax
	addq	$72, %rsp
	retq
	.seh_handlerdata
	.section	.text,"xr",discard,"??_Gbad_alloc@std@@UEAAPEAXI@Z"
	.seh_endproc
                                        # -- End function
	.def	 "??_Gexception@std@@UEAAPEAXI@Z";
	.scl	2;
	.type	32;
	.endef
	.section	.text,"xr",discard,"??_Gexception@std@@UEAAPEAXI@Z"
	.globl	"??_Gexception@std@@UEAAPEAXI@Z" # -- Begin function ??_Gexception@std@@UEAAPEAXI@Z
	.p2align	4, 0x90
"??_Gexception@std@@UEAAPEAXI@Z":       # @"??_Gexception@std@@UEAAPEAXI@Z"
.seh_proc "??_Gexception@std@@UEAAPEAXI@Z"
# %bb.0:
	subq	$72, %rsp
	.seh_stackalloc 72
	.seh_endprologue
	movl	%edx, 60(%rsp)
	movq	%rcx, 48(%rsp)
	movq	48(%rsp), %rax
	movq	%rax, %rcx
	movq	%rcx, 64(%rsp)
	movl	60(%rsp), %edx
	movq	%rax, %rcx
	movq	%rax, 40(%rsp)          # 8-byte Spill
	movl	%edx, 36(%rsp)          # 4-byte Spill
	callq	"??1exception@std@@UEAA@XZ"
	movl	36(%rsp), %edx          # 4-byte Reload
	cmpl	$0, %edx
	je	.LBB82_2
# %bb.1:
	movq	40(%rsp), %rax          # 8-byte Reload
	movq	%rax, %rcx
	callq	"??3@YAXPEAX@Z"
.LBB82_2:
	movq	64(%rsp), %rax
	addq	$72, %rsp
	retq
	.seh_handlerdata
	.section	.text,"xr",discard,"??_Gexception@std@@UEAAPEAXI@Z"
	.seh_endproc
                                        # -- End function
	.def	 "??1exception@std@@UEAA@XZ";
	.scl	2;
	.type	32;
	.endef
	.section	.text,"xr",discard,"??1exception@std@@UEAA@XZ"
	.globl	"??1exception@std@@UEAA@XZ" # -- Begin function ??1exception@std@@UEAA@XZ
	.p2align	4, 0x90
"??1exception@std@@UEAA@XZ":            # @"??1exception@std@@UEAA@XZ"
.Lfunc_begin4:
.seh_proc "??1exception@std@@UEAA@XZ"
	.seh_handler __CxxFrameHandler3, @unwind, @except
# %bb.0:
	pushq	%rbp
	.seh_pushreg %rbp
	subq	$48, %rsp
	.seh_stackalloc 48
	leaq	48(%rsp), %rbp
	.seh_setframe %rbp, 48
	.seh_endprologue
	movq	$-2, -8(%rbp)
	movq	%rcx, -16(%rbp)
	movq	-16(%rbp), %rax
	leaq	"??_7exception@std@@6B@"(%rip), %rcx
	movq	%rcx, (%rax)
	addq	$8, %rax
.Ltmp8:
	movq	%rax, %rcx
	callq	__std_exception_destroy
.Ltmp9:
	jmp	.LBB83_1
.LBB83_1:
	addq	$48, %rsp
	popq	%rbp
	retq
	.seh_handlerdata
	.long	("$cppxdata$??1exception@std@@UEAA@XZ")@IMGREL
	.section	.text,"xr",discard,"??1exception@std@@UEAA@XZ"
	.seh_endproc
	.def	 "?dtor$2@?0???1exception@std@@UEAA@XZ@4HA";
	.scl	3;
	.type	32;
	.endef
	.p2align	4, 0x90
"?dtor$2@?0???1exception@std@@UEAA@XZ@4HA":
.seh_proc "?dtor$2@?0???1exception@std@@UEAA@XZ@4HA"
.LBB83_2:
	movq	%rdx, 16(%rsp)
	pushq	%rbp
	.seh_pushreg %rbp
	subq	$32, %rsp
	.seh_stackalloc 32
	leaq	48(%rdx), %rbp
	.seh_endprologue
	callq	__std_terminate
	int3
.Lfunc_end4:
	.seh_handlerdata
	.section	.text,"xr",discard,"??1exception@std@@UEAA@XZ"
	.seh_endproc
	.section	.xdata,"dr",associative,"??1exception@std@@UEAA@XZ"
	.p2align	2
"$cppxdata$??1exception@std@@UEAA@XZ":
	.long	429065506               # MagicNumber
	.long	1                       # MaxState
	.long	("$stateUnwindMap$??1exception@std@@UEAA@XZ")@IMGREL # UnwindMap
	.long	0                       # NumTryBlocks
	.long	0                       # TryBlockMap
	.long	3                       # IPMapEntries
	.long	("$ip2state$??1exception@std@@UEAA@XZ")@IMGREL # IPToStateXData
	.long	40                      # UnwindHelp
	.long	0                       # ESTypeList
	.long	1                       # EHFlags
"$stateUnwindMap$??1exception@std@@UEAA@XZ":
	.long	-1                      # ToState
	.long	"?dtor$2@?0???1exception@std@@UEAA@XZ@4HA"@IMGREL # Action
"$ip2state$??1exception@std@@UEAA@XZ":
	.long	.Lfunc_begin4@IMGREL    # IP
	.long	-1                      # ToState
	.long	.Ltmp8@IMGREL+1         # IP
	.long	0                       # ToState
	.long	.Ltmp9@IMGREL+1         # IP
	.long	-1                      # ToState
	.section	.text,"xr",discard,"??1exception@std@@UEAA@XZ"
                                        # -- End function
	.def	 "??1bad_alloc@std@@UEAA@XZ";
	.scl	2;
	.type	32;
	.endef
	.section	.text,"xr",discard,"??1bad_alloc@std@@UEAA@XZ"
	.globl	"??1bad_alloc@std@@UEAA@XZ" # -- Begin function ??1bad_alloc@std@@UEAA@XZ
	.p2align	4, 0x90
"??1bad_alloc@std@@UEAA@XZ":            # @"??1bad_alloc@std@@UEAA@XZ"
.seh_proc "??1bad_alloc@std@@UEAA@XZ"
# %bb.0:
	subq	$40, %rsp
	.seh_stackalloc 40
	.seh_endprologue
	movq	%rcx, 32(%rsp)
	movq	32(%rsp), %rax
	movq	%rax, %rcx
	callq	"??1exception@std@@UEAA@XZ"
	nop
	addq	$40, %rsp
	retq
	.seh_handlerdata
	.section	.text,"xr",discard,"??1bad_alloc@std@@UEAA@XZ"
	.seh_endproc
                                        # -- End function
	.def	 "?copy@?$_Narrow_char_traits@DH@std@@SAPEADQEADQEBD_K@Z";
	.scl	2;
	.type	32;
	.endef
	.section	.text,"xr",discard,"?copy@?$_Narrow_char_traits@DH@std@@SAPEADQEADQEBD_K@Z"
	.globl	"?copy@?$_Narrow_char_traits@DH@std@@SAPEADQEADQEBD_K@Z" # -- Begin function ?copy@?$_Narrow_char_traits@DH@std@@SAPEADQEADQEBD_K@Z
	.p2align	4, 0x90
"?copy@?$_Narrow_char_traits@DH@std@@SAPEADQEADQEBD_K@Z": # @"?copy@?$_Narrow_char_traits@DH@std@@SAPEADQEADQEBD_K@Z"
.seh_proc "?copy@?$_Narrow_char_traits@DH@std@@SAPEADQEADQEBD_K@Z"
# %bb.0:
	subq	$72, %rsp
	.seh_stackalloc 72
	.seh_endprologue
	movq	%r8, 64(%rsp)
	movq	%rdx, 56(%rsp)
	movq	%rcx, 48(%rsp)
	movq	48(%rsp), %rax
	movq	56(%rsp), %rdx
	movq	64(%rsp), %r8
	movq	%rax, %rcx
	movq	%rax, 40(%rsp)          # 8-byte Spill
	callq	memcpy
	movq	40(%rsp), %rax          # 8-byte Reload
	addq	$72, %rsp
	retq
	.seh_handlerdata
	.section	.text,"xr",discard,"?copy@?$_Narrow_char_traits@DH@std@@SAPEADQEADQEBD_K@Z"
	.seh_endproc
                                        # -- End function
	.def	 "??$addressof@PEAD@std@@YAPEAPEADAEAPEAD@Z";
	.scl	2;
	.type	32;
	.endef
	.section	.text,"xr",discard,"??$addressof@PEAD@std@@YAPEAPEADAEAPEAD@Z"
	.globl	"??$addressof@PEAD@std@@YAPEAPEADAEAPEAD@Z" # -- Begin function ??$addressof@PEAD@std@@YAPEAPEADAEAPEAD@Z
	.p2align	4, 0x90
"??$addressof@PEAD@std@@YAPEAPEADAEAPEAD@Z": # @"??$addressof@PEAD@std@@YAPEAPEADAEAPEAD@Z"
.seh_proc "??$addressof@PEAD@std@@YAPEAPEADAEAPEAD@Z"
# %bb.0:
	pushq	%rax
	.seh_stackalloc 8
	.seh_endprologue
	movq	%rcx, (%rsp)
	movq	(%rsp), %rax
	popq	%rcx
	retq
	.seh_handlerdata
	.section	.text,"xr",discard,"??$addressof@PEAD@std@@YAPEAPEADAEAPEAD@Z"
	.seh_endproc
                                        # -- End function
	.def	 "??$forward@AEBQEAD@std@@YAAEBQEADAEBQEAD@Z";
	.scl	2;
	.type	32;
	.endef
	.section	.text,"xr",discard,"??$forward@AEBQEAD@std@@YAAEBQEADAEBQEAD@Z"
	.globl	"??$forward@AEBQEAD@std@@YAAEBQEADAEBQEAD@Z" # -- Begin function ??$forward@AEBQEAD@std@@YAAEBQEADAEBQEAD@Z
	.p2align	4, 0x90
"??$forward@AEBQEAD@std@@YAAEBQEADAEBQEAD@Z": # @"??$forward@AEBQEAD@std@@YAAEBQEADAEBQEAD@Z"
.seh_proc "??$forward@AEBQEAD@std@@YAAEBQEADAEBQEAD@Z"
# %bb.0:
	pushq	%rax
	.seh_stackalloc 8
	.seh_endprologue
	movq	%rcx, (%rsp)
	movq	(%rsp), %rax
	popq	%rcx
	retq
	.seh_handlerdata
	.section	.text,"xr",discard,"??$forward@AEBQEAD@std@@YAAEBQEADAEBQEAD@Z"
	.seh_endproc
                                        # -- End function
	.section	.rdata,"dr"
	.p2align	3               # @__const.main.pa
.L__const.main.pa:
	.quad	1                       # 0x1
	.quad	5                       # 0x5
	.quad	8                       # 0x8
	.quad	3                       # 0x3

	.p2align	3               # @__const.main.pb
.L__const.main.pb:
	.quad	6                       # 0x6
	.quad	3                       # 0x3
	.quad	2                       # 0x2
	.quad	4                       # 0x4

	.section	.rdata,"dr",discard,"??_C@_00CNPNBAHC@?$AA@"
	.globl	"??_C@_00CNPNBAHC@?$AA@" # @"??_C@_00CNPNBAHC@?$AA@"
"??_C@_00CNPNBAHC@?$AA@":
	.zero	1

	.section	.rdata,"dr",discard,"??_C@_0BA@JFNIOLAK@string?5too?5long?$AA@"
	.globl	"??_C@_0BA@JFNIOLAK@string?5too?5long?$AA@" # @"??_C@_0BA@JFNIOLAK@string?5too?5long?$AA@"
"??_C@_0BA@JFNIOLAK@string?5too?5long?$AA@":
	.asciz	"string too long"

	.section	.data,"dw",discard,"??_R0?AVbad_array_new_length@std@@@8"
	.globl	"??_R0?AVbad_array_new_length@std@@@8" # @"??_R0?AVbad_array_new_length@std@@@8"
	.p2align	4
"??_R0?AVbad_array_new_length@std@@@8":
	.quad	"??_7type_info@@6B@"
	.quad	0
	.asciz	".?AVbad_array_new_length@std@@"
	.zero	1

	.section	.xdata,"dr",discard,"_CT??_R0?AVbad_array_new_length@std@@@8??0bad_array_new_length@std@@QEAA@AEBV01@@Z24"
	.globl	"_CT??_R0?AVbad_array_new_length@std@@@8??0bad_array_new_length@std@@QEAA@AEBV01@@Z24" # @"_CT??_R0?AVbad_array_new_length@std@@@8??0bad_array_new_length@std@@QEAA@AEBV01@@Z24"
	.p2align	4
"_CT??_R0?AVbad_array_new_length@std@@@8??0bad_array_new_length@std@@QEAA@AEBV01@@Z24":
	.long	0                       # 0x0
	.long	"??_R0?AVbad_array_new_length@std@@@8"@IMGREL
	.long	0                       # 0x0
	.long	4294967295              # 0xffffffff
	.long	0                       # 0x0
	.long	24                      # 0x18
	.long	"??0bad_array_new_length@std@@QEAA@AEBV01@@Z"@IMGREL

	.section	.data,"dw",discard,"??_R0?AVbad_alloc@std@@@8"
	.globl	"??_R0?AVbad_alloc@std@@@8" # @"??_R0?AVbad_alloc@std@@@8"
	.p2align	4
"??_R0?AVbad_alloc@std@@@8":
	.quad	"??_7type_info@@6B@"
	.quad	0
	.asciz	".?AVbad_alloc@std@@"
	.zero	4

	.section	.xdata,"dr",discard,"_CT??_R0?AVbad_alloc@std@@@8??0bad_alloc@std@@QEAA@AEBV01@@Z24"
	.globl	"_CT??_R0?AVbad_alloc@std@@@8??0bad_alloc@std@@QEAA@AEBV01@@Z24" # @"_CT??_R0?AVbad_alloc@std@@@8??0bad_alloc@std@@QEAA@AEBV01@@Z24"
	.p2align	4
"_CT??_R0?AVbad_alloc@std@@@8??0bad_alloc@std@@QEAA@AEBV01@@Z24":
	.long	16                      # 0x10
	.long	"??_R0?AVbad_alloc@std@@@8"@IMGREL
	.long	0                       # 0x0
	.long	4294967295              # 0xffffffff
	.long	0                       # 0x0
	.long	24                      # 0x18
	.long	"??0bad_alloc@std@@QEAA@AEBV01@@Z"@IMGREL

	.section	.data,"dw",discard,"??_R0?AVexception@std@@@8"
	.globl	"??_R0?AVexception@std@@@8" # @"??_R0?AVexception@std@@@8"
	.p2align	4
"??_R0?AVexception@std@@@8":
	.quad	"??_7type_info@@6B@"
	.quad	0
	.asciz	".?AVexception@std@@"
	.zero	4

	.section	.xdata,"dr",discard,"_CT??_R0?AVexception@std@@@8??0exception@std@@QEAA@AEBV01@@Z24"
	.globl	"_CT??_R0?AVexception@std@@@8??0exception@std@@QEAA@AEBV01@@Z24" # @"_CT??_R0?AVexception@std@@@8??0exception@std@@QEAA@AEBV01@@Z24"
	.p2align	4
"_CT??_R0?AVexception@std@@@8??0exception@std@@QEAA@AEBV01@@Z24":
	.long	0                       # 0x0
	.long	"??_R0?AVexception@std@@@8"@IMGREL
	.long	0                       # 0x0
	.long	4294967295              # 0xffffffff
	.long	0                       # 0x0
	.long	24                      # 0x18
	.long	"??0exception@std@@QEAA@AEBV01@@Z"@IMGREL

	.section	.xdata,"dr",discard,"_CTA3?AVbad_array_new_length@std@@"
	.globl	"_CTA3?AVbad_array_new_length@std@@" # @"_CTA3?AVbad_array_new_length@std@@"
	.p2align	3
"_CTA3?AVbad_array_new_length@std@@":
	.long	3                       # 0x3
	.long	"_CT??_R0?AVbad_array_new_length@std@@@8??0bad_array_new_length@std@@QEAA@AEBV01@@Z24"@IMGREL
	.long	"_CT??_R0?AVbad_alloc@std@@@8??0bad_alloc@std@@QEAA@AEBV01@@Z24"@IMGREL
	.long	"_CT??_R0?AVexception@std@@@8??0exception@std@@QEAA@AEBV01@@Z24"@IMGREL

	.section	.xdata,"dr",discard,"_TI3?AVbad_array_new_length@std@@"
	.globl	"_TI3?AVbad_array_new_length@std@@" # @"_TI3?AVbad_array_new_length@std@@"
	.p2align	3
"_TI3?AVbad_array_new_length@std@@":
	.long	0                       # 0x0
	.long	"??1bad_array_new_length@std@@UEAA@XZ"@IMGREL
	.long	0                       # 0x0
	.long	"_CTA3?AVbad_array_new_length@std@@"@IMGREL

	.section	.rdata,"dr",discard,"??_C@_0BF@KINCDENJ@bad?5array?5new?5length?$AA@"
	.globl	"??_C@_0BF@KINCDENJ@bad?5array?5new?5length?$AA@" # @"??_C@_0BF@KINCDENJ@bad?5array?5new?5length?$AA@"
"??_C@_0BF@KINCDENJ@bad?5array?5new?5length?$AA@":
	.asciz	"bad array new length"

	.section	.rdata,"dr",largest,"??_7bad_array_new_length@std@@6B@"
	.p2align	4               # @0
.L__unnamed_1:
	.quad	"??_R4bad_array_new_length@std@@6B@"
	.quad	"??_Gbad_array_new_length@std@@UEAAPEAXI@Z"
	.quad	"?what@exception@std@@UEBAPEBDXZ"

	.section	.rdata,"dr",discard,"??_R4bad_array_new_length@std@@6B@"
	.globl	"??_R4bad_array_new_length@std@@6B@" # @"??_R4bad_array_new_length@std@@6B@"
	.p2align	4
"??_R4bad_array_new_length@std@@6B@":
	.long	1                       # 0x1
	.long	0                       # 0x0
	.long	0                       # 0x0
	.long	"??_R0?AVbad_array_new_length@std@@@8"@IMGREL
	.long	"??_R3bad_array_new_length@std@@8"@IMGREL
	.long	"??_R4bad_array_new_length@std@@6B@"@IMGREL

	.section	.rdata,"dr",discard,"??_R3bad_array_new_length@std@@8"
	.globl	"??_R3bad_array_new_length@std@@8" # @"??_R3bad_array_new_length@std@@8"
	.p2align	3
"??_R3bad_array_new_length@std@@8":
	.long	0                       # 0x0
	.long	0                       # 0x0
	.long	3                       # 0x3
	.long	"??_R2bad_array_new_length@std@@8"@IMGREL

	.section	.rdata,"dr",discard,"??_R2bad_array_new_length@std@@8"
	.globl	"??_R2bad_array_new_length@std@@8" # @"??_R2bad_array_new_length@std@@8"
	.p2align	2
"??_R2bad_array_new_length@std@@8":
	.long	"??_R1A@?0A@EA@bad_array_new_length@std@@8"@IMGREL
	.long	"??_R1A@?0A@EA@bad_alloc@std@@8"@IMGREL
	.long	"??_R1A@?0A@EA@exception@std@@8"@IMGREL
	.long	0                       # 0x0

	.section	.rdata,"dr",discard,"??_R1A@?0A@EA@bad_array_new_length@std@@8"
	.globl	"??_R1A@?0A@EA@bad_array_new_length@std@@8" # @"??_R1A@?0A@EA@bad_array_new_length@std@@8"
	.p2align	4
"??_R1A@?0A@EA@bad_array_new_length@std@@8":
	.long	"??_R0?AVbad_array_new_length@std@@@8"@IMGREL
	.long	2                       # 0x2
	.long	0                       # 0x0
	.long	4294967295              # 0xffffffff
	.long	0                       # 0x0
	.long	64                      # 0x40
	.long	"??_R3bad_array_new_length@std@@8"@IMGREL

	.section	.rdata,"dr",discard,"??_R1A@?0A@EA@bad_alloc@std@@8"
	.globl	"??_R1A@?0A@EA@bad_alloc@std@@8" # @"??_R1A@?0A@EA@bad_alloc@std@@8"
	.p2align	4
"??_R1A@?0A@EA@bad_alloc@std@@8":
	.long	"??_R0?AVbad_alloc@std@@@8"@IMGREL
	.long	1                       # 0x1
	.long	0                       # 0x0
	.long	4294967295              # 0xffffffff
	.long	0                       # 0x0
	.long	64                      # 0x40
	.long	"??_R3bad_alloc@std@@8"@IMGREL

	.section	.rdata,"dr",discard,"??_R3bad_alloc@std@@8"
	.globl	"??_R3bad_alloc@std@@8" # @"??_R3bad_alloc@std@@8"
	.p2align	3
"??_R3bad_alloc@std@@8":
	.long	0                       # 0x0
	.long	0                       # 0x0
	.long	2                       # 0x2
	.long	"??_R2bad_alloc@std@@8"@IMGREL

	.section	.rdata,"dr",discard,"??_R2bad_alloc@std@@8"
	.globl	"??_R2bad_alloc@std@@8" # @"??_R2bad_alloc@std@@8"
	.p2align	2
"??_R2bad_alloc@std@@8":
	.long	"??_R1A@?0A@EA@bad_alloc@std@@8"@IMGREL
	.long	"??_R1A@?0A@EA@exception@std@@8"@IMGREL
	.long	0                       # 0x0

	.section	.rdata,"dr",discard,"??_R1A@?0A@EA@exception@std@@8"
	.globl	"??_R1A@?0A@EA@exception@std@@8" # @"??_R1A@?0A@EA@exception@std@@8"
	.p2align	4
"??_R1A@?0A@EA@exception@std@@8":
	.long	"??_R0?AVexception@std@@@8"@IMGREL
	.long	0                       # 0x0
	.long	0                       # 0x0
	.long	4294967295              # 0xffffffff
	.long	0                       # 0x0
	.long	64                      # 0x40
	.long	"??_R3exception@std@@8"@IMGREL

	.section	.rdata,"dr",discard,"??_R3exception@std@@8"
	.globl	"??_R3exception@std@@8" # @"??_R3exception@std@@8"
	.p2align	3
"??_R3exception@std@@8":
	.long	0                       # 0x0
	.long	0                       # 0x0
	.long	1                       # 0x1
	.long	"??_R2exception@std@@8"@IMGREL

	.section	.rdata,"dr",discard,"??_R2exception@std@@8"
	.globl	"??_R2exception@std@@8" # @"??_R2exception@std@@8"
	.p2align	2
"??_R2exception@std@@8":
	.long	"??_R1A@?0A@EA@exception@std@@8"@IMGREL
	.long	0                       # 0x0

	.section	.rdata,"dr",largest,"??_7bad_alloc@std@@6B@"
	.p2align	4               # @1
.L__unnamed_2:
	.quad	"??_R4bad_alloc@std@@6B@"
	.quad	"??_Gbad_alloc@std@@UEAAPEAXI@Z"
	.quad	"?what@exception@std@@UEBAPEBDXZ"

	.section	.rdata,"dr",discard,"??_R4bad_alloc@std@@6B@"
	.globl	"??_R4bad_alloc@std@@6B@" # @"??_R4bad_alloc@std@@6B@"
	.p2align	4
"??_R4bad_alloc@std@@6B@":
	.long	1                       # 0x1
	.long	0                       # 0x0
	.long	0                       # 0x0
	.long	"??_R0?AVbad_alloc@std@@@8"@IMGREL
	.long	"??_R3bad_alloc@std@@8"@IMGREL
	.long	"??_R4bad_alloc@std@@6B@"@IMGREL

	.section	.rdata,"dr",largest,"??_7exception@std@@6B@"
	.p2align	4               # @2
.L__unnamed_3:
	.quad	"??_R4exception@std@@6B@"
	.quad	"??_Gexception@std@@UEAAPEAXI@Z"
	.quad	"?what@exception@std@@UEBAPEBDXZ"

	.section	.rdata,"dr",discard,"??_R4exception@std@@6B@"
	.globl	"??_R4exception@std@@6B@" # @"??_R4exception@std@@6B@"
	.p2align	4
"??_R4exception@std@@6B@":
	.long	1                       # 0x1
	.long	0                       # 0x0
	.long	0                       # 0x0
	.long	"??_R0?AVexception@std@@@8"@IMGREL
	.long	"??_R3exception@std@@8"@IMGREL
	.long	"??_R4exception@std@@6B@"@IMGREL

	.section	.rdata,"dr",discard,"??_C@_0BC@EOODALEL@Unknown?5exception?$AA@"
	.globl	"??_C@_0BC@EOODALEL@Unknown?5exception?$AA@" # @"??_C@_0BC@EOODALEL@Unknown?5exception?$AA@"
"??_C@_0BC@EOODALEL@Unknown?5exception?$AA@":
	.asciz	"Unknown exception"

	.section	.drectve,"yn"
	.ascii	" /FAILIFMISMATCH:\"_MSC_VER=1900\""
	.ascii	" /FAILIFMISMATCH:\"_ITERATOR_DEBUG_LEVEL=0\""
	.ascii	" /FAILIFMISMATCH:\"RuntimeLibrary=MT_StaticRelease\""
	.ascii	" /DEFAULTLIB:libcpmt.lib"
	.ascii	" /FAILIFMISMATCH:\"_CRT_STDIO_ISO_WIDE_SPECIFIERS=0\""
	.globl	"??_7bad_array_new_length@std@@6B@"
.set "??_7bad_array_new_length@std@@6B@", .L__unnamed_1+8
	.globl	"??_7bad_alloc@std@@6B@"
.set "??_7bad_alloc@std@@6B@", .L__unnamed_2+8
	.globl	"??_7exception@std@@6B@"
.set "??_7exception@std@@6B@", .L__unnamed_3+8
	.addrsig
	.addrsig_sym "?print@@YAXXZ"
	.addrsig_sym "?print1@@YAX_J@Z"
	.addrsig_sym "?print2@@YAXAEA_J@Z"
	.addrsig_sym "?print3@@YAXPEA_J@Z"
	.addrsig_sym "?print4@@YAXUi64_2@@@Z"
	.addrsig_sym "?print5@@YAXAEAUi64_2@@@Z"
	.addrsig_sym "?print6@@YAXPEAUi64_2@@@Z"
	.addrsig_sym "?print7@@YA_JXZ"
	.addrsig_sym "?print8@@YAPEA_JXZ"
	.addrsig_sym "?print9@@YAAEA_JXZ"
	.addrsig_sym "?print10@@YA?AUi64_2@@XZ"
	.addrsig_sym "?print12@@YAPEAUi64_2@@XZ"
	.addrsig_sym "?add1@@YA_J_J0@Z"
	.addrsig_sym "?add2@@YA_JAEA_J0@Z"
	.addrsig_sym "?add3@@YA_JPEA_J0@Z"
	.addrsig_sym "?padd1@@YA?AVPoint@@V1@0@Z"
	.addrsig_sym "?padd2@@YA?AVPoint@@AEAV1@0@Z"
	.addrsig_sym "?padd3@@YA?AVPoint@@PEAV1@0@Z"
	.addrsig_sym "?Act@Single@@QEAAXXZ"
	.addrsig_sym "?StaticAct@Single@@SAXXZ"
	.addrsig_sym "?_Tidy_deallocate@?$basic_string@DU?$char_traits@D@std@@V?$allocator@D@2@@std@@AEAAXXZ"
	.addrsig_sym "?_Orphan_all@_Container_base0@std@@QEAAXXZ"
	.addrsig_sym "?_Large_string_engaged@?$_String_val@U?$_Simple_types@D@std@@@std@@QEBA_NXZ"
	.addrsig_sym "?_Getal@?$basic_string@DU?$char_traits@D@std@@V?$allocator@D@2@@std@@AEAAAEAV?$allocator@D@2@XZ"
	.addrsig_sym "??$_Destroy_in_place@PEAD@std@@YAXAEAPEAD@Z"
	.addrsig_sym "?deallocate@?$allocator@D@std@@QEAAXQEAD_K@Z"
	.addrsig_sym __CxxFrameHandler3
	.addrsig_sym __std_terminate
	.addrsig_sym "?assign@?$_Narrow_char_traits@DH@std@@SAXAEADAEBD@Z"
	.addrsig_sym "?_Get_first@?$_Compressed_pair@V?$allocator@D@std@@V?$_String_val@U?$_Simple_types@D@std@@@2@$00@std@@QEAAAEAV?$allocator@D@2@XZ"
	.addrsig_sym "??$_Deallocate@$0BA@$0A@@std@@YAXPEAX_K@Z"
	.addrsig_sym "?_Adjust_manually_vector_aligned@std@@YAXAEAPEAXAEA_K@Z"
	.addrsig_sym "??3@YAXPEAX_K@Z"
	.addrsig_sym _invalid_parameter_noinfo_noreturn
	.addrsig_sym "?_Tidy_init@?$basic_string@DU?$char_traits@D@std@@V?$allocator@D@2@@std@@AEAAXXZ"
	.addrsig_sym "?assign@?$basic_string@DU?$char_traits@D@std@@V?$allocator@D@2@@std@@QEAAAEAV12@QEBD@Z"
	.addrsig_sym "?_Release@_Fake_proxy_ptr_impl@std@@QEAAXXZ"
	.addrsig_sym "?assign@?$basic_string@DU?$char_traits@D@std@@V?$allocator@D@2@@std@@QEAAAEAV12@QEBD_K@Z"
	.addrsig_sym "??$_Convert_size@_K@std@@YA_K_K@Z"
	.addrsig_sym "?length@?$_Narrow_char_traits@DH@std@@SA_KQEBD@Z"
	.addrsig_sym "?_Myptr@?$_String_val@U?$_Simple_types@D@std@@@std@@QEAAPEADXZ"
	.addrsig_sym "?move@?$_Narrow_char_traits@DH@std@@SAPEADQEADQEBD_K@Z"
	.addrsig_sym "??$_Reallocate_for@V<lambda_1>@?0??assign@?$basic_string@DU?$char_traits@D@std@@V?$allocator@D@2@@std@@QEAAAEAV34@QEBD_K@Z@PEBD@?$basic_string@DU?$char_traits@D@std@@V?$allocator@D@2@@std@@AEAAAEAV01@_KV<lambda_1>@?0??assign@01@QEAAAEAV01@QEBD0@Z@PEBD@Z"
	.addrsig_sym "??$_Unfancy@D@std@@YAPEADPEAD@Z"
	.addrsig_sym "?max_size@?$basic_string@DU?$char_traits@D@std@@V?$allocator@D@2@@std@@QEBA_KXZ"
	.addrsig_sym "?_Xlen_string@std@@YAXXZ"
	.addrsig_sym "?_Calculate_growth@?$basic_string@DU?$char_traits@D@std@@V?$allocator@D@2@@std@@AEBA_K_K@Z"
	.addrsig_sym "?allocate@?$allocator@D@std@@QEAAPEAD_K@Z"
	.addrsig_sym "??R<lambda_1>@?0??assign@?$basic_string@DU?$char_traits@D@std@@V?$allocator@D@2@@std@@QEAAAEAV23@QEBD_K@Z@QEBA?A?<auto>@@QEAD10@Z"
	.addrsig_sym "??$_Construct_in_place@PEADAEBQEAD@std@@YAXAEAPEADAEBQEAD@Z"
	.addrsig_sym "?max_size@?$_Default_allocator_traits@V?$allocator@D@std@@@std@@SA_KAEBV?$allocator@D@2@@Z"
	.addrsig_sym "?_Getal@?$basic_string@DU?$char_traits@D@std@@V?$allocator@D@2@@std@@AEBAAEBV?$allocator@D@2@XZ"
	.addrsig_sym "??$_Max_value@_K@std@@YAAEB_KAEB_K0@Z"
	.addrsig_sym "??$_Min_value@_K@std@@YAAEB_KAEB_K0@Z"
	.addrsig_sym "?max@?$numeric_limits@_J@std@@SA_JXZ"
	.addrsig_sym "?_Get_first@?$_Compressed_pair@V?$allocator@D@std@@V?$_String_val@U?$_Simple_types@D@std@@@2@$00@std@@QEBAAEBV?$allocator@D@2@XZ"
	.addrsig_sym "?_Xlength_error@std@@YAXPEBD@Z"
	.addrsig_sym "?_Calculate_growth@?$basic_string@DU?$char_traits@D@std@@V?$allocator@D@2@@std@@CA_K_K00@Z"
	.addrsig_sym "??$_Allocate@$0BA@U_Default_allocate_traits@std@@$0A@@std@@YAPEAX_K@Z"
	.addrsig_sym "??$_Get_size_of_n@$00@std@@YA_K_K@Z"
	.addrsig_sym "??$_Allocate_manually_vector_aligned@U_Default_allocate_traits@std@@@std@@YAPEAX_K@Z"
	.addrsig_sym "?_Allocate@_Default_allocate_traits@std@@SAPEAX_K@Z"
	.addrsig_sym "?_Throw_bad_array_new_length@std@@YAXXZ"
	.addrsig_sym _CxxThrowException
	.addrsig_sym "??3@YAXPEAX@Z"
	.addrsig_sym __std_exception_destroy
	.addrsig_sym __std_exception_copy
	.addrsig_sym "??2@YAPEAX_K@Z"
	.addrsig_sym "?copy@?$_Narrow_char_traits@DH@std@@SAPEADQEADQEBD_K@Z"
	.addrsig_sym "??$addressof@PEAD@std@@YAPEAPEADAEAPEAD@Z"
	.addrsig_sym "??$forward@AEBQEAD@std@@YAAEBQEADAEBQEAD@Z"
	.addrsig_sym strlen
	.addrsig_sym "??_7type_info@@6B@"
	.addrsig_sym "??_R0?AVbad_array_new_length@std@@@8"
	.addrsig_sym __ImageBase
	.addrsig_sym "??_R0?AVbad_alloc@std@@@8"
	.addrsig_sym "??_R0?AVexception@std@@@8"
	.addrsig_sym "??_R4bad_array_new_length@std@@6B@"
	.addrsig_sym "??_R3bad_array_new_length@std@@8"
	.addrsig_sym "??_R2bad_array_new_length@std@@8"
	.addrsig_sym "??_R1A@?0A@EA@bad_array_new_length@std@@8"
	.addrsig_sym "??_R1A@?0A@EA@bad_alloc@std@@8"
	.addrsig_sym "??_R3bad_alloc@std@@8"
	.addrsig_sym "??_R2bad_alloc@std@@8"
	.addrsig_sym "??_R1A@?0A@EA@exception@std@@8"
	.addrsig_sym "??_R3exception@std@@8"
	.addrsig_sym "??_R2exception@std@@8"
	.addrsig_sym "??_R4bad_alloc@std@@6B@"
	.addrsig_sym "??_R4exception@std@@6B@"
